(dp0
S'cookies'
p1
(dp2
S'wxloadtime'
p3
S'1578729150'
p4
sS'webwx_data_ticket'
p5
S'gSfslMF3zUfQ6pNaWZRONSmP'
p6
sS'wxuin'
p7
S'1424655402'
p8
sS'login_frequency'
p9
S'2'
p10
sS'MM_WX_NOTIFY_STATE'
p11
S'1'
p12
sS'MM_WX_SOUND_STATE'
p13
g12
sS'webwx_auth_ticket'
p14
S'CIsBEI+Ls4QLGoABq4bguiqEBQVk0FzoY9KWXfMHXPxf+LZ/j4NBRUFLB73ZxdSXGb49hhNBIPJXD28l5Hg36ndNAlo5+2GqpKKfocrQT7L0Qa+42bFTSVqhe9FdUUwRHhuRJmLrKJhIyai9ef/5hB16zaiVhr16nYbr/p2uuLuzILeOKakHGD5Q/UQ='
p15
sS'last_wxuin'
p16
S'1424655402'
p17
sS'webwxuvid'
p18
S'6f666144a9e6e595d4f375357c32a961ab101cef7610adc00479ec0bf909abbb580db7e0cf1a7b5a76c79cdc012434ec'
p19
sS'wxpluginkey'
p20
S'1578730364'
p21
sS'wxsid'
p22
S'VH+mcYl10AqiL22T'
p23
sS'mm_lang'
p24
S'zh_CN'
p25
ssS'version'
p26
S'1.2.32'
p27
sS'storage'
p28
(dp29
S'userName'
p30
V@03d5bfabaac7204e5799376a19c3238b55b2cc6ca01fcb91322f6d7cb8a099a5
p31
sS'lastInputUserName'
p32
NsS'memberList'
p33
(lp34
(dp35
S'UserName'
p36
g31
sS'City'
p37
S''
p38
sS'DisplayName'
p39
g38
sS'UniFriend'
p40
I0
sS'MemberList'
p41
(lp42
sS'PYQuanPin'
p43
V
p44
sS'RemarkPYInitial'
p45
g44
sS'Sex'
p46
I1
sS'AppAccountFlag'
p47
I0
sS'VerifyFlag'
p48
I0
sS'Province'
p49
g38
sS'KeyWord'
p50
g38
sS'RemarkName'
p51
g44
sS'PYInitial'
p52
g44
sS'ChatRoomId'
p53
I0
sS'HideInputBarFlag'
p54
I0
sVHeadImgFlag
p55
I1
sS'EncryChatRoomId'
p56
g38
sS'AttrStatus'
p57
I0
sVWebWxPluginSwitch
p58
I0
sS'SnsFlag'
p59
I16
sS'MemberCount'
p60
I0
sS'OwnerUin'
p61
I0
sS'Alias'
p62
g38
sS'Signature'
p63
VZnVjayB3b3JsZA==
p64
sS'ContactFlag'
p65
I0
sS'NickName'
p66
VAlpha
p67
sS'RemarkPYQuanPin'
p68
g44
sS'HeadImgUrl'
p69
V/cgi-bin/mmwebwx-bin/webwxgeticon?seq=1070196260&username=@03d5bfabaac7204e5799376a19c3238b55b2cc6ca01fcb91322f6d7cb8a099a5&skey=@crypt_c4463405_3b7c724258920b3156a723070c0a22f1
p70
sS'Uin'
p71
I1424655402
sS'StarFriend'
p72
I0
sS'Statues'
p73
I0
sa(dp74
VUserName
p75
V@86744293e7d01e420698d23efe739a6e8af17a980b6cc4f706332f9b7bdada5e
p76
sVCity
p77
g44
sVDisplayName
p78
g44
sVUniFriend
p79
I0
sVMemberList
p80
(lp81
sVPYQuanPin
p82
Vziyueyu
p83
sVRemarkPYInitial
p84
VLYL
p85
sVUin
p86
I0
sVAppAccountFlag
p87
I0
sVVerifyFlag
p88
I0
sVProvince
p89
g44
sVKeyWord
p90
g44
sVRemarkName
p91
V\u5218\u73a5\u826f
p92
sVPYInitial
p93
VZYY
p94
sVChatRoomId
p95
I0
sVIsOwner
p96
I0
sVHideInputBarFlag
p97
I0
sVEncryChatRoomId
p98
g44
sVAttrStatus
p99
I33788517
sVSnsFlag
p100
I17
sVMemberCount
p101
I0
sVOwnerUin
p102
I0
sVAlias
p103
g44
sVSignature
p104
g44
sVContactFlag
p105
I1
sVNickName
p106
V\u7d2b\u3065\u6708\u8bed
p107
sVRemarkPYQuanPin
p108
Vliuyueliang
p109
sVHeadImgUrl
p110
V/cgi-bin/mmwebwx-bin/webwxgeticon?seq=679167568&username=@86744293e7d01e420698d23efe739a6e8af17a980b6cc4f706332f9b7bdada5e&skey=@crypt_c4463405_3b7c724258920b3156a723070c0a22f1
p111
sVSex
p112
I0
sVStarFriend
p113
I0
sVStatues
p114
I0
sa(dp115
VUserName
p116
V@4d26dfcc4bfc07b86a40028a1cb487bee16959fb0b3f6ddb61794f21b5c862f6
p117
sVCity
p118
g44
sVDisplayName
p119
g44
sVUniFriend
p120
I0
sVMemberList
p121
(lp122
sVPYQuanPin
p123
Vxigema
p124
sVRemarkPYInitial
p125
VNCW
p126
sVUin
p127
I0
sVAppAccountFlag
p128
I0
sVVerifyFlag
p129
I0
sVProvince
p130
g44
sVKeyWord
p131
g44
sVRemarkName
p132
V\u8042\u6210\u73ae
p133
sVPYInitial
p134
VXGM
p135
sVChatRoomId
p136
I0
sVIsOwner
p137
I0
sVHideInputBarFlag
p138
I0
sVEncryChatRoomId
p139
g44
sVAttrStatus
p140
I135461
sVSnsFlag
p141
I1
sVMemberCount
p142
I0
sVOwnerUin
p143
I0
sVAlias
p144
g44
sVSignature
p145
g44
sVContactFlag
p146
I1
sVNickName
p147
V\u897f\u683c\u739b
p148
sVRemarkPYQuanPin
p149
Vniechengwei
p150
sVHeadImgUrl
p151
V/cgi-bin/mmwebwx-bin/webwxgeticon?seq=681250109&username=@4d26dfcc4bfc07b86a40028a1cb487bee16959fb0b3f6ddb61794f21b5c862f6&skey=@crypt_c4463405_3b7c724258920b3156a723070c0a22f1
p152
sVSex
p153
I1
sVStarFriend
p154
I0
sVStatues
p155
I0
sa(dp156
VUserName
p157
V@e6b99cded0aaee9bf7d3578e649d7912263406f7b7e83a78014e80b7dbc1e96c
p158
sVCity
p159
g44
sVDisplayName
p160
g44
sVUniFriend
p161
I0
sVMemberList
p162
(lp163
sVPYQuanPin
p164
Vz
p165
sVRemarkPYInitial
p166
VZMJ
p167
sVUin
p168
I0
sVAppAccountFlag
p169
I0
sVVerifyFlag
p170
I0
sVProvince
p171
g44
sVKeyWord
p172
g44
sVRemarkName
p173
V\u8a79\u7f8e\u6770
p174
sVPYInitial
p175
VZ
p176
sVChatRoomId
p177
I0
sVIsOwner
p178
I0
sVHideInputBarFlag
p179
I0
sVEncryChatRoomId
p180
g44
sVAttrStatus
p181
I4133
sVSnsFlag
p182
I1
sVMemberCount
p183
I0
sVOwnerUin
p184
I0
sVAlias
p185
g44
sVSignature
p186
g44
sVContactFlag
p187
I1
sVNickName
p188
g165
sVRemarkPYQuanPin
p189
Vzhanmeijie
p190
sVHeadImgUrl
p191
V/cgi-bin/mmwebwx-bin/webwxgeticon?seq=662643256&username=@e6b99cded0aaee9bf7d3578e649d7912263406f7b7e83a78014e80b7dbc1e96c&skey=@crypt_c4463405_3b7c724258920b3156a723070c0a22f1
p192
sVSex
p193
I0
sVStarFriend
p194
I0
sVStatues
p195
I0
sa(dp196
VUserName
p197
V@a657beb1988039d7a901c304e45ec97fafea97be41424e06e622edd35226dcc0
p198
sVCity
p199
V\u54c8\u5c14\u6ee8
p200
sVDisplayName
p201
g44
sVUniFriend
p202
I0
sVMemberList
p203
(lp204
sVPYQuanPin
p205
VM
p206
sVRemarkPYInitial
p207
VHZJ
p208
sVUin
p209
I0
sVAppAccountFlag
p210
I0
sVVerifyFlag
p211
I0
sVProvince
p212
V\u9ed1\u9f99\u6c5f
p213
sVKeyWord
p214
g44
sVRemarkName
p215
V\u90dd\u653f\u94a7
p216
sVPYInitial
p217
g206
sVChatRoomId
p218
I0
sVIsOwner
p219
I0
sVHideInputBarFlag
p220
I0
sVEncryChatRoomId
p221
g44
sVAttrStatus
p222
I102757
sVSnsFlag
p223
I256
sVMemberCount
p224
I0
sVOwnerUin
p225
I0
sVAlias
p226
g44
sVSignature
p227
g44
sVContactFlag
p228
I1
sVNickName
p229
g206
sVRemarkPYQuanPin
p230
Vhaozhengjun
p231
sVHeadImgUrl
p232
V/cgi-bin/mmwebwx-bin/webwxgeticon?seq=681241810&username=@a657beb1988039d7a901c304e45ec97fafea97be41424e06e622edd35226dcc0&skey=@crypt_c4463405_3b7c724258920b3156a723070c0a22f1
p233
sVSex
p234
I1
sVStarFriend
p235
I0
sVStatues
p236
I0
sa(dp237
VUserName
p238
V@e9737ce43550a859b2bee70406eda2da7bbdf54eea37312523b06e50247b28de
p239
sVCity
p240
g44
sVDisplayName
p241
g44
sVUniFriend
p242
I0
sVMemberList
p243
(lp244
sVPYQuanPin
p245
Vwangyangdahai
p246
sVRemarkPYInitial
p247
VWLS
p248
sVUin
p249
I0
sVAppAccountFlag
p250
I0
sVVerifyFlag
p251
I0
sVProvince
p252
V\u6e56\u5317
p253
sVKeyWord
p254
g44
sVRemarkName
p255
V\u6c6a\u8001\u5e08
p256
sVPYInitial
p257
VWYDH
p258
sVChatRoomId
p259
I0
sVIsOwner
p260
I0
sVHideInputBarFlag
p261
I0
sVEncryChatRoomId
p262
g44
sVAttrStatus
p263
I135205
sVSnsFlag
p264
I257
sVMemberCount
p265
I0
sVOwnerUin
p266
I0
sVAlias
p267
g44
sVSignature
p268
V\u72d7\u72d7
p269
sVContactFlag
p270
I1
sVNickName
p271
V\u6c6a\u6d0b\u5927\u6d77
p272
sVRemarkPYQuanPin
p273
Vwanglaoshi
p274
sVHeadImgUrl
p275
V/cgi-bin/mmwebwx-bin/webwxgeticon?seq=662629972&username=@e9737ce43550a859b2bee70406eda2da7bbdf54eea37312523b06e50247b28de&skey=@crypt_c4463405_3b7c724258920b3156a723070c0a22f1
p276
sVSex
p277
I2
sVStarFriend
p278
I0
sVStatues
p279
I0
sa(dp280
VUserName
p281
V@63da774a4436b1a056e50ebbedb1204d562ccf3b392419f09d30084cb12b01d3
p282
sVCity
p283
g44
sVDisplayName
p284
g44
sVUniFriend
p285
I0
sVMemberList
p286
(lp287
sVPYQuanPin
p288
Vtsxtsxtsx
p289
sVRemarkPYInitial
p290
VTSX
p291
sVUin
p292
I0
sVAppAccountFlag
p293
I0
sVVerifyFlag
p294
I0
sVProvince
p295
g44
sVKeyWord
p296
g44
sVRemarkName
p297
V\u6c64\u614e\u8f69
p298
sVPYInitial
p299
VTSXTSXTSX
p300
sVChatRoomId
p301
I0
sVIsOwner
p302
I0
sVHideInputBarFlag
p303
I0
sVEncryChatRoomId
p304
g44
sVAttrStatus
p305
I102501
sVSnsFlag
p306
I257
sVMemberCount
p307
I0
sVOwnerUin
p308
I0
sVAlias
p309
g44
sVSignature
p310
g44
sVContactFlag
p311
I1
sVNickName
p312
Vtsxtsxtsx
p313
sVRemarkPYQuanPin
p314
Vtangshenxuan
p315
sVHeadImgUrl
p316
V/cgi-bin/mmwebwx-bin/webwxgeticon?seq=681249063&username=@63da774a4436b1a056e50ebbedb1204d562ccf3b392419f09d30084cb12b01d3&skey=@crypt_c4463405_3b7c724258920b3156a723070c0a22f1
p317
sVSex
p318
I1
sVStarFriend
p319
I0
sVStatues
p320
I0
sa(dp321
VUserName
p322
V@47461b521f8ae0716de6f524e79b22d67159f58fc629bbec49b839a49e90473f
p323
sVCity
p324
g44
sVDisplayName
p325
g44
sVUniFriend
p326
I0
sVMemberList
p327
(lp328
sVPYQuanPin
p329
Vpanxiuxu
p330
sVRemarkPYInitial
p331
g44
sVUin
p332
I0
sVAppAccountFlag
p333
I0
sVVerifyFlag
p334
I0
sVProvince
p335
g44
sVKeyWord
p336
g44
sVRemarkName
p337
g44
sVPYInitial
p338
VPXX
p339
sVChatRoomId
p340
I0
sVIsOwner
p341
I0
sVHideInputBarFlag
p342
I0
sVEncryChatRoomId
p343
g44
sVAttrStatus
p344
I16781349
sVSnsFlag
p345
I257
sVMemberCount
p346
I0
sVOwnerUin
p347
I0
sVAlias
p348
g44
sVSignature
p349
g44
sVContactFlag
p350
I1
sVNickName
p351
V\u6f58\u4fee\u65ed
p352
sVRemarkPYQuanPin
p353
g44
sVHeadImgUrl
p354
V/cgi-bin/mmwebwx-bin/webwxgeticon?seq=681289686&username=@47461b521f8ae0716de6f524e79b22d67159f58fc629bbec49b839a49e90473f&skey=@crypt_c4463405_3b7c724258920b3156a723070c0a22f1
p355
sVSex
p356
I0
sVStarFriend
p357
I0
sVStatues
p358
I0
sa(dp359
VUserName
p360
V@90fdd09c604abaca4dd7c0de12b92f8df2e5768ced22586a589698b15c15a6fd
p361
sVCity
p362
V\u54c8\u5c14\u6ee8
p363
sVDisplayName
p364
g44
sVUniFriend
p365
I0
sVMemberList
p366
(lp367
sVPYQuanPin
p368
VBearManNeverFearspanclassemojiemoji1f43bspan
p369
sVRemarkPYInitial
p370
VGX
p371
sVUin
p372
I0
sVAppAccountFlag
p373
I0
sVVerifyFlag
p374
I0
sVProvince
p375
V\u9ed1\u9f99\u6c5f
p376
sVKeyWord
p377
g44
sVRemarkName
p378
V\u90ed\u65ed
p379
sVPYInitial
p380
VBEARMANNEVERFEARSPANCLASSEMOJIEMOJI1F43BSPAN
p381
sVChatRoomId
p382
I0
sVIsOwner
p383
I0
sVHideInputBarFlag
p384
I0
sVEncryChatRoomId
p385
g44
sVAttrStatus
p386
I4133
sVSnsFlag
p387
I1
sVMemberCount
p388
I0
sVOwnerUin
p389
I0
sVAlias
p390
g44
sVSignature
p391
g44
sVContactFlag
p392
I1
sVNickName
p393
VBear Man Never Fear\U0001f43b
p394
sVRemarkPYQuanPin
p395
Vguoxu
p396
sVHeadImgUrl
p397
V/cgi-bin/mmwebwx-bin/webwxgeticon?seq=681261798&username=@90fdd09c604abaca4dd7c0de12b92f8df2e5768ced22586a589698b15c15a6fd&skey=@crypt_c4463405_3b7c724258920b3156a723070c0a22f1
p398
sVSex
p399
I1
sVStarFriend
p400
I0
sVStatues
p401
I0
sa(dp402
VUserName
p403
V@e5d54d6af0bd65d949fcb7997eb846e7d8ee56fcffb3199929908f991b3ad670
p404
sVCity
p405
V\u4ed9\u6843
p406
sVDisplayName
p407
g44
sVUniFriend
p408
I0
sVMemberList
p409
(lp410
sVPYQuanPin
p411
Vlzh
p412
sVRemarkPYInitial
p413
VLZH
p414
sVUin
p415
I0
sVAppAccountFlag
p416
I0
sVVerifyFlag
p417
I0
sVProvince
p418
V\u6e56\u5317
p419
sVKeyWord
p420
g44
sVRemarkName
p421
V\u5218\u82b7\u6db5
p422
sVPYInitial
p423
VLZH
p424
sVChatRoomId
p425
I0
sVIsOwner
p426
I0
sVHideInputBarFlag
p427
I0
sVEncryChatRoomId
p428
g44
sVAttrStatus
p429
I102437
sVSnsFlag
p430
I49
sVMemberCount
p431
I0
sVOwnerUin
p432
I0
sVAlias
p433
g44
sVSignature
p434
g44
sVContactFlag
p435
I1
sVNickName
p436
Vlzh
p437
sVRemarkPYQuanPin
p438
Vliuzhihan
p439
sVHeadImgUrl
p440
V/cgi-bin/mmwebwx-bin/webwxgeticon?seq=681296606&username=@e5d54d6af0bd65d949fcb7997eb846e7d8ee56fcffb3199929908f991b3ad670&skey=@crypt_c4463405_3b7c724258920b3156a723070c0a22f1
p441
sVSex
p442
I2
sVStarFriend
p443
I0
sVStatues
p444
I0
sa(dp445
VUserName
p446
V@e730f1ee7faa5966f681bd817bdd4acbd3330fe9e911686c3880c7d7c859ec18
p447
sVCity
p448
V\u9f50\u9f50\u54c8\u5c14
p449
sVDisplayName
p450
g44
sVUniFriend
p451
I0
sVMemberList
p452
(lp453
sVPYQuanPin
p454
Vlingfeng
p455
sVRemarkPYInitial
p456
VJJ
p457
sVUin
p458
I0
sVAppAccountFlag
p459
I0
sVVerifyFlag
p460
I0
sVProvince
p461
V\u9ed1\u9f99\u6c5f
p462
sVKeyWord
p463
g44
sVRemarkName
p464
V\u59dc\u519b
p465
sVPYInitial
p466
VLF
p467
sVChatRoomId
p468
I0
sVIsOwner
p469
I0
sVHideInputBarFlag
p470
I0
sVEncryChatRoomId
p471
g44
sVAttrStatus
p472
I102501
sVSnsFlag
p473
I273
sVMemberCount
p474
I0
sVOwnerUin
p475
I0
sVAlias
p476
g44
sVSignature
p477
g44
sVContactFlag
p478
I1
sVNickName
p479
V\u51cc\u98ce
p480
sVRemarkPYQuanPin
p481
Vjiangjun
p482
sVHeadImgUrl
p483
V/cgi-bin/mmwebwx-bin/webwxgeticon?seq=681286005&username=@e730f1ee7faa5966f681bd817bdd4acbd3330fe9e911686c3880c7d7c859ec18&skey=@crypt_c4463405_3b7c724258920b3156a723070c0a22f1
p484
sVSex
p485
I1
sVStarFriend
p486
I0
sVStatues
p487
I0
sa(dp488
VUserName
p489
V@20cc4670ec6c03c81fd38b51ba596592d2ba4cfc9de9290d55b29a30d894b972
p490
sVCity
p491
g44
sVDisplayName
p492
g44
sVUniFriend
p493
I0
sVMemberList
p494
(lp495
sVPYQuanPin
p496
VAVICII
p497
sVRemarkPYInitial
p498
VSYJ
p499
sVUin
p500
I0
sVAppAccountFlag
p501
I0
sVVerifyFlag
p502
I0
sVProvince
p503
g44
sVKeyWord
p504
g44
sVRemarkName
p505
V\u968b\u82f1\u6770
p506
sVPYInitial
p507
VAVICII
p508
sVChatRoomId
p509
I0
sVIsOwner
p510
I0
sVHideInputBarFlag
p511
I0
sVEncryChatRoomId
p512
g44
sVAttrStatus
p513
I4133
sVSnsFlag
p514
I1
sVMemberCount
p515
I0
sVOwnerUin
p516
I0
sVAlias
p517
g44
sVSignature
p518
g44
sVContactFlag
p519
I1
sVNickName
p520
VAVICII
p521
sVRemarkPYQuanPin
p522
Vsuiyingjie
p523
sVHeadImgUrl
p524
V/cgi-bin/mmwebwx-bin/webwxgeticon?seq=681220141&username=@20cc4670ec6c03c81fd38b51ba596592d2ba4cfc9de9290d55b29a30d894b972&skey=@crypt_c4463405_3b7c724258920b3156a723070c0a22f1
p525
sVSex
p526
I0
sVStarFriend
p527
I0
sVStatues
p528
I0
sa(dp529
VUserName
p530
V@5e6b39839a1df976da280821b88efa082fbe875325c268fc594383c69e62582f
p531
sVCity
p532
V\u5357\u660c
p533
sVDisplayName
p534
g44
sVUniFriend
p535
I0
sVMemberList
p536
(lp537
sVPYQuanPin
p538
VL
p539
sVRemarkPYInitial
p540
VLYH
p541
sVUin
p542
I0
sVAppAccountFlag
p543
I0
sVVerifyFlag
p544
I0
sVProvince
p545
V\u6c5f\u897f
p546
sVKeyWord
p547
g44
sVRemarkName
p548
V\u5218\u6c38\u6d77
p549
sVPYInitial
p550
g539
sVChatRoomId
p551
I0
sVIsOwner
p552
I0
sVHideInputBarFlag
p553
I0
sVEncryChatRoomId
p554
g44
sVAttrStatus
p555
I4197
sVSnsFlag
p556
I1
sVMemberCount
p557
I0
sVOwnerUin
p558
I0
sVAlias
p559
g44
sVSignature
p560
g44
sVContactFlag
p561
I1
sVNickName
p562
g539
sVRemarkPYQuanPin
p563
Vliuyonghai
p564
sVHeadImgUrl
p565
V/cgi-bin/mmwebwx-bin/webwxgeticon?seq=681272396&username=@5e6b39839a1df976da280821b88efa082fbe875325c268fc594383c69e62582f&skey=@crypt_c4463405_3b7c724258920b3156a723070c0a22f1
p566
sVSex
p567
I1
sVStarFriend
p568
I0
sVStatues
p569
I0
sa(dp570
VUserName
p571
V@864a18e191a9237dfb1639cd38435192736d4a7e5a7c2245600b25a63584a694
p572
sVCity
p573
V\u54c8\u5c14\u6ee8
p574
sVDisplayName
p575
g44
sVUniFriend
p576
I0
sVMemberList
p577
(lp578
sVPYQuanPin
p579
VEN
p580
sVRemarkPYInitial
p581
VDX
p582
sVUin
p583
I0
sVAppAccountFlag
p584
I0
sVVerifyFlag
p585
I0
sVProvince
p586
V\u9ed1\u9f99\u6c5f
p587
sVKeyWord
p588
g44
sVRemarkName
p589
V\u8463\u65ed
p590
sVPYInitial
p591
VEN
p592
sVChatRoomId
p593
I0
sVIsOwner
p594
I0
sVHideInputBarFlag
p595
I0
sVEncryChatRoomId
p596
g44
sVAttrStatus
p597
I4133
sVSnsFlag
p598
I17
sVMemberCount
p599
I0
sVOwnerUin
p600
I0
sVAlias
p601
g44
sVSignature
p602
V\u6211\u5373\u662f\u6076
p603
sVContactFlag
p604
I1
sVNickName
p605
VEN
p606
sVRemarkPYQuanPin
p607
Vdongxu
p608
sVHeadImgUrl
p609
V/cgi-bin/mmwebwx-bin/webwxgeticon?seq=681297134&username=@864a18e191a9237dfb1639cd38435192736d4a7e5a7c2245600b25a63584a694&skey=@crypt_c4463405_3b7c724258920b3156a723070c0a22f1
p610
sVSex
p611
I1
sVStarFriend
p612
I0
sVStatues
p613
I0
sa(dp614
VUserName
p615
V@248013f6d03cf782ad216cb34b02a7e6a05d0541db6b5e920e0adf7e3e540c95
p616
sVCity
p617
V\u6b66\u6c49
p618
sVDisplayName
p619
g44
sVUniFriend
p620
I0
sVMemberList
p621
(lp622
sVPYQuanPin
p623
Vwodemiguafenniyiban
p624
sVRemarkPYInitial
p625
VFK
p626
sVUin
p627
I0
sVAppAccountFlag
p628
I0
sVVerifyFlag
p629
I0
sVProvince
p630
V\u6e56\u5317
p631
sVKeyWord
p632
g44
sVRemarkName
p633
V\u4ed8\u5eb7
p634
sVPYInitial
p635
VWDMGFNYB
p636
sVChatRoomId
p637
I0
sVIsOwner
p638
I0
sVHideInputBarFlag
p639
I0
sVEncryChatRoomId
p640
g44
sVAttrStatus
p641
I98405
sVSnsFlag
p642
I49
sVMemberCount
p643
I0
sVOwnerUin
p644
I0
sVAlias
p645
g44
sVSignature
p646
g44
sVContactFlag
p647
I1
sVNickName
p648
V\u6211\u7684\u871c\u74dc\u5206\u4f60\u4e00\u534a
p649
sVRemarkPYQuanPin
p650
Vfukang
p651
sVHeadImgUrl
p652
V/cgi-bin/mmwebwx-bin/webwxgeticon?seq=681303077&username=@248013f6d03cf782ad216cb34b02a7e6a05d0541db6b5e920e0adf7e3e540c95&skey=@crypt_c4463405_3b7c724258920b3156a723070c0a22f1
p653
sVSex
p654
I1
sVStarFriend
p655
I0
sVStatues
p656
I0
sa(dp657
VUserName
p658
V@2daf9b90041cd11c13713625c21f0cadc97c7c4019581841bdf9cd7729530121
p659
sVCity
p660
V\u6df1\u5733
p661
sVDisplayName
p662
g44
sVUniFriend
p663
I0
sVMemberList
p664
(lp665
sVPYQuanPin
p666
Vwutong
p667
sVRemarkPYInitial
p668
g44
sVUin
p669
I0
sVAppAccountFlag
p670
I0
sVVerifyFlag
p671
I0
sVProvince
p672
V\u5e7f\u4e1c
p673
sVKeyWord
p674
g44
sVRemarkName
p675
g44
sVPYInitial
p676
VWT
p677
sVChatRoomId
p678
I0
sVIsOwner
p679
I0
sVHideInputBarFlag
p680
I0
sVEncryChatRoomId
p681
g44
sVAttrStatus
p682
I112743
sVSnsFlag
p683
I401
sVMemberCount
p684
I0
sVOwnerUin
p685
I0
sVAlias
p686
g44
sVSignature
p687
V\u70ed\u7231\u6f2b\u65e0\u8fb9\u9645\uff0c\u751f\u6d3b\u81ea\u6709\u5206\u5bf8 \u200b\u200b\u200b<span class="emoji emoji1f343"></span>
p688
sVContactFlag
p689
I1
sVNickName
p690
V\u5434\u5f64
p691
sVRemarkPYQuanPin
p692
g44
sVHeadImgUrl
p693
V/cgi-bin/mmwebwx-bin/webwxgeticon?seq=681309207&username=@2daf9b90041cd11c13713625c21f0cadc97c7c4019581841bdf9cd7729530121&skey=@crypt_c4463405_3b7c724258920b3156a723070c0a22f1
p694
sVSex
p695
I2
sVStarFriend
p696
I0
sVStatues
p697
I0
sa(dp698
VUserName
p699
V@425dea474e1088d710c6ee7a7d3f6eefd9d1f89ad2e2210d4b7e8154116b8c6a
p700
sVCity
p701
g44
sVDisplayName
p702
g44
sVUniFriend
p703
I0
sVMemberList
p704
(lp705
sVPYQuanPin
p706
Vmianyangxiaoming
p707
sVRemarkPYInitial
p708
VZMY
p709
sVUin
p710
I0
sVAppAccountFlag
p711
I0
sVVerifyFlag
p712
I0
sVProvince
p713
g44
sVKeyWord
p714
g44
sVRemarkName
p715
V\u5f20\u660e\u7389
p716
sVPYInitial
p717
VMYXM
p718
sVChatRoomId
p719
I0
sVIsOwner
p720
I0
sVHideInputBarFlag
p721
I0
sVEncryChatRoomId
p722
g44
sVAttrStatus
p723
I134439
sVSnsFlag
p724
I273
sVMemberCount
p725
I0
sVOwnerUin
p726
I0
sVAlias
p727
g44
sVSignature
p728
VLife is beautiful\uff01
p729
sVContactFlag
p730
I1
sVNickName
p731
V\u7ef5\u7f8a\u5c0f\u660e
p732
sVRemarkPYQuanPin
p733
Vzhangmingyu
p734
sVHeadImgUrl
p735
V/cgi-bin/mmwebwx-bin/webwxgeticon?seq=681309268&username=@425dea474e1088d710c6ee7a7d3f6eefd9d1f89ad2e2210d4b7e8154116b8c6a&skey=@crypt_c4463405_3b7c724258920b3156a723070c0a22f1
p736
sVSex
p737
I2
sVStarFriend
p738
I0
sVStatues
p739
I0
sa(dp740
VUserName
p741
V@77b6d64d76b3ba22b6a6ab9b1ef09a5893c9ff21a368f1aaa8ebedefbe601d68
p742
sVCity
p743
V\u54c8\u5c14\u6ee8
p744
sVDisplayName
p745
g44
sVUniFriend
p746
I0
sVMemberList
p747
(lp748
sVPYQuanPin
p749
VSTART
p750
sVRemarkPYInitial
p751
VLXB
p752
sVUin
p753
I0
sVAppAccountFlag
p754
I0
sVVerifyFlag
p755
I0
sVProvince
p756
V\u9ed1\u9f99\u6c5f
p757
sVKeyWord
p758
g44
sVRemarkName
p759
V\u674e\u5b66\u535a
p760
sVPYInitial
p761
VSTART
p762
sVChatRoomId
p763
I0
sVIsOwner
p764
I0
sVHideInputBarFlag
p765
I0
sVEncryChatRoomId
p766
g44
sVAttrStatus
p767
I233509
sVSnsFlag
p768
I273
sVMemberCount
p769
I0
sVOwnerUin
p770
I0
sVAlias
p771
g44
sVSignature
p772
VBe.   All.  You.  can. BE
p773
sVContactFlag
p774
I1
sVNickName
p775
VSTART
p776
sVRemarkPYQuanPin
p777
Vlixuebo
p778
sVHeadImgUrl
p779
V/cgi-bin/mmwebwx-bin/webwxgeticon?seq=681309636&username=@77b6d64d76b3ba22b6a6ab9b1ef09a5893c9ff21a368f1aaa8ebedefbe601d68&skey=@crypt_c4463405_3b7c724258920b3156a723070c0a22f1
p780
sVSex
p781
I1
sVStarFriend
p782
I0
sVStatues
p783
I0
sa(dp784
VUserName
p785
V@ee2f2f1f61e4d36792c67af8f7506ace9bf4c0ac7b95a133ae731fa160999445
p786
sVCity
p787
g44
sVDisplayName
p788
g44
sVUniFriend
p789
I0
sVMemberList
p790
(lp791
sVPYQuanPin
p792
VClarenceW
p793
sVRemarkPYInitial
p794
VKYP
p795
sVUin
p796
I0
sVAppAccountFlag
p797
I0
sVVerifyFlag
p798
I0
sVProvince
p799
VAbu Dhabi
p800
sVKeyWord
p801
g44
sVRemarkName
p802
V\u5b54\u9038\u9e4f
p803
sVPYInitial
p804
VCLARENCEW
p805
sVChatRoomId
p806
I0
sVIsOwner
p807
I0
sVHideInputBarFlag
p808
I0
sVEncryChatRoomId
p809
g44
sVAttrStatus
p810
I65573
sVSnsFlag
p811
I49
sVMemberCount
p812
I0
sVOwnerUin
p813
I0
sVAlias
p814
g44
sVSignature
p815
V\u963f\u62c9\u65af\u52a0\u4e0a\u8bfe
p816
sVContactFlag
p817
I3
sVNickName
p818
VClarence.W
p819
sVRemarkPYQuanPin
p820
Vkongyipeng
p821
sVHeadImgUrl
p822
V/cgi-bin/mmwebwx-bin/webwxgeticon?seq=681309785&username=@ee2f2f1f61e4d36792c67af8f7506ace9bf4c0ac7b95a133ae731fa160999445&skey=@crypt_c4463405_3b7c724258920b3156a723070c0a22f1
p823
sVSex
p824
I1
sVStarFriend
p825
I0
sVStatues
p826
I0
sa(dp827
VUserName
p828
V@0697f2f3ba16db648a1f9f301ce3d5ea980b60b84d09c89d89883a83e764f8c9
p829
sVCity
p830
V\u54c8\u5c14\u6ee8
p831
sVDisplayName
p832
g44
sVUniFriend
p833
I0
sVMemberList
p834
(lp835
sVPYQuanPin
p836
Vspanclassemojiemoji1f5fdspanspanclassemojiemoji1f5fdspanspanclassemojiemoji1f5fdspan
p837
sVRemarkPYInitial
p838
VLYN
p839
sVUin
p840
I0
sVAppAccountFlag
p841
I0
sVVerifyFlag
p842
I0
sVProvince
p843
V\u9ed1\u9f99\u6c5f
p844
sVKeyWord
p845
g44
sVRemarkName
p846
V\u674e\u4e9a\u7537
p847
sVPYInitial
p848
VSPANCLASSEMOJIEMOJI1F5FDSPANSPANCLASSEMOJIEMOJI1F5FDSPANSPANCLASSEMOJIEMOJI1F5FDSPAN
p849
sVChatRoomId
p850
I0
sVIsOwner
p851
I0
sVHideInputBarFlag
p852
I0
sVEncryChatRoomId
p853
g44
sVAttrStatus
p854
I102437
sVSnsFlag
p855
I305
sVMemberCount
p856
I0
sVOwnerUin
p857
I0
sVAlias
p858
g44
sVSignature
p859
V\u751c\u7684\u50cf\u7cd6 \u70c8\u7684\u50cf\u67aa
p860
sVContactFlag
p861
I1
sVNickName
p862
V\U0001f5fd\U0001f5fd\U0001f5fd
p863
sVRemarkPYQuanPin
p864
Vliyanan
p865
sVHeadImgUrl
p866
V/cgi-bin/mmwebwx-bin/webwxgeticon?seq=681308204&username=@0697f2f3ba16db648a1f9f301ce3d5ea980b60b84d09c89d89883a83e764f8c9&skey=@crypt_c4463405_3b7c724258920b3156a723070c0a22f1
p867
sVSex
p868
I2
sVStarFriend
p869
I0
sVStatues
p870
I0
sa(dp871
VUserName
p872
V@9c8c20b501933cf0fdbff5b1555f1ee8e056621af2c1107422616de7856a4219
p873
sVCity
p874
V\u54c8\u5c14\u6ee8
p875
sVDisplayName
p876
g44
sVUniFriend
p877
I0
sVMemberList
p878
(lp879
sVPYQuanPin
p880
Vzhaopeichen
p881
sVRemarkPYInitial
p882
VZPC
p883
sVUin
p884
I0
sVAppAccountFlag
p885
I0
sVVerifyFlag
p886
I0
sVProvince
p887
V\u9ed1\u9f99\u6c5f
p888
sVKeyWord
p889
g44
sVRemarkName
p890
V\u8d75\u57f9\u8fb0
p891
sVPYInitial
p892
VZPC
p893
sVChatRoomId
p894
I0
sVIsOwner
p895
I0
sVHideInputBarFlag
p896
I0
sVEncryChatRoomId
p897
g44
sVAttrStatus
p898
I102501
sVSnsFlag
p899
I1
sVMemberCount
p900
I0
sVOwnerUin
p901
I0
sVAlias
p902
g44
sVSignature
p903
g44
sVContactFlag
p904
I1
sVNickName
p905
V\u8d75\u57f9\u8fb0
p906
sVRemarkPYQuanPin
p907
Vzhaopeichen
p908
sVHeadImgUrl
p909
V/cgi-bin/mmwebwx-bin/webwxgeticon?seq=681312151&username=@9c8c20b501933cf0fdbff5b1555f1ee8e056621af2c1107422616de7856a4219&skey=@crypt_c4463405_3b7c724258920b3156a723070c0a22f1
p910
sVSex
p911
I1
sVStarFriend
p912
I0
sVStatues
p913
I0
sa(dp914
VUserName
p915
V@3fa17e29f2965c11ab8d71ea6ff32fbc4803fd0783f49b0db303eb804011096f
p916
sVCity
p917
g44
sVDisplayName
p918
g44
sVUniFriend
p919
I0
sVMemberList
p920
(lp921
sVPYQuanPin
p922
VCyl
p923
sVRemarkPYInitial
p924
VCYL
p925
sVUin
p926
I0
sVAppAccountFlag
p927
I0
sVVerifyFlag
p928
I0
sVProvince
p929
g44
sVKeyWord
p930
g44
sVRemarkName
p931
V\u8521\u9896\u9f99
p932
sVPYInitial
p933
VCYL
p934
sVChatRoomId
p935
I0
sVIsOwner
p936
I0
sVHideInputBarFlag
p937
I0
sVEncryChatRoomId
p938
g44
sVAttrStatus
p939
I104637
sVSnsFlag
p940
I273
sVMemberCount
p941
I0
sVOwnerUin
p942
I0
sVAlias
p943
g44
sVSignature
p944
g44
sVContactFlag
p945
I1
sVNickName
p946
VCyl
p947
sVRemarkPYQuanPin
p948
Vcaiyinglong
p949
sVHeadImgUrl
p950
V/cgi-bin/mmwebwx-bin/webwxgeticon?seq=681282878&username=@3fa17e29f2965c11ab8d71ea6ff32fbc4803fd0783f49b0db303eb804011096f&skey=@crypt_c4463405_3b7c724258920b3156a723070c0a22f1
p951
sVSex
p952
I1
sVStarFriend
p953
I0
sVStatues
p954
I0
sa(dp955
VUserName
p956
V@427e025767b9ef63ff48904bbfed6e270b3cd6c4573decf28b5e763233924f97
p957
sVCity
p958
V\u6b66\u6c49
p959
sVDisplayName
p960
g44
sVUniFriend
p961
I0
sVMemberList
p962
(lp963
sVPYQuanPin
p964
Vshixie
p965
sVRemarkPYInitial
p966
VMGS
p967
sVUin
p968
I0
sVAppAccountFlag
p969
I0
sVVerifyFlag
p970
I0
sVProvince
p971
V\u6e56\u5317
p972
sVKeyWord
p973
g44
sVRemarkName
p974
V\u7f2a\u5149\u7855
p975
sVPYInitial
p976
VSX
p977
sVChatRoomId
p978
I0
sVIsOwner
p979
I0
sVHideInputBarFlag
p980
I0
sVEncryChatRoomId
p981
g44
sVAttrStatus
p982
I102501
sVSnsFlag
p983
I1
sVMemberCount
p984
I0
sVOwnerUin
p985
I0
sVAlias
p986
g44
sVSignature
p987
V\u4f60\u7684\u4fe1\u4ef0\u5c31\u662f\u6211\u7684\u4eba\u751f\u65b9\u5411\u3002
p988
sVContactFlag
p989
I1
sVNickName
p990
V\u77f3\u9875
p991
sVRemarkPYQuanPin
p992
Vmiaoguangshuo
p993
sVHeadImgUrl
p994
V/cgi-bin/mmwebwx-bin/webwxgeticon?seq=681312786&username=@427e025767b9ef63ff48904bbfed6e270b3cd6c4573decf28b5e763233924f97&skey=@crypt_c4463405_3b7c724258920b3156a723070c0a22f1
p995
sVSex
p996
I1
sVStarFriend
p997
I0
sVStatues
p998
I0
sa(dp999
VUserName
p1000
V@b3fdc58a30e0a173ac14e7ee824fdeb8
p1001
sVCity
p1002
g44
sVDisplayName
p1003
g44
sVUniFriend
p1004
I0
sVMemberList
p1005
(lp1006
sVPYQuanPin
p1007
Vsuyelou
p1008
sVRemarkPYInitial
p1009
VSYL
p1010
sVUin
p1011
I0
sVAppAccountFlag
p1012
I0
sVVerifyFlag
p1013
I0
sVProvince
p1014
V\u5317\u4eac
p1015
sVKeyWord
p1016
Vsuy
p1017
sVRemarkName
p1018
V\u5bbf\u53f6\u9732
p1019
sVPYInitial
p1020
VSYL
p1021
sVChatRoomId
p1022
I0
sVIsOwner
p1023
I0
sVHideInputBarFlag
p1024
I0
sVEncryChatRoomId
p1025
g44
sVAttrStatus
p1026
I104959
sVSnsFlag
p1027
I17
sVMemberCount
p1028
I0
sVOwnerUin
p1029
I0
sVAlias
p1030
g44
sVSignature
p1031
V\u4eba\u603b\u662f\u82b1\u5f88\u957f\u65f6\u95f4\u8ff7\u832b,\u7528\u51e0\u4e2a\u77ac\u95f4\u6210\u957f\u3002
p1032
sVContactFlag
p1033
I1
sVNickName
p1034
V\u5bbf\u53f6\u9732
p1035
sVRemarkPYQuanPin
p1036
Vsuyelou
p1037
sVHeadImgUrl
p1038
V/cgi-bin/mmwebwx-bin/webwxgeticon?seq=681281399&username=@b3fdc58a30e0a173ac14e7ee824fdeb8&skey=@crypt_c4463405_3b7c724258920b3156a723070c0a22f1
p1039
sVSex
p1040
I1
sVStarFriend
p1041
I0
sVStatues
p1042
I0
sa(dp1043
VUserName
p1044
V@495d6a921885736d6f37ae80f19f3ee56f002b91197fd1cb80db8a51ba8f4886
p1045
sVCity
p1046
g44
sVDisplayName
p1047
g44
sVUniFriend
p1048
I0
sVMemberList
p1049
(lp1050
sVPYQuanPin
p1051
Valilyn
p1052
sVRemarkPYInitial
p1053
VLY
p1054
sVUin
p1055
I0
sVAppAccountFlag
p1056
I0
sVVerifyFlag
p1057
I0
sVProvince
p1058
g44
sVKeyWord
p1059
g44
sVRemarkName
p1060
V\u5362\u7fbd
p1061
sVPYInitial
p1062
VALILYN
p1063
sVChatRoomId
p1064
I0
sVIsOwner
p1065
I0
sVHideInputBarFlag
p1066
I0
sVEncryChatRoomId
p1067
g44
sVAttrStatus
p1068
I4197
sVSnsFlag
p1069
I1
sVMemberCount
p1070
I0
sVOwnerUin
p1071
I0
sVAlias
p1072
g44
sVSignature
p1073
V\u70df\u96e8\u5165\u6c5f\u5357 \u7ec6\u96e8\u843d\u7af9\u4f1e
p1074
sVContactFlag
p1075
I1
sVNickName
p1076
Valilyn
p1077
sVRemarkPYQuanPin
p1078
Vluyu
p1079
sVHeadImgUrl
p1080
V/cgi-bin/mmwebwx-bin/webwxgeticon?seq=681315048&username=@495d6a921885736d6f37ae80f19f3ee56f002b91197fd1cb80db8a51ba8f4886&skey=@crypt_c4463405_3b7c724258920b3156a723070c0a22f1
p1081
sVSex
p1082
I1
sVStarFriend
p1083
I0
sVStatues
p1084
I0
sa(dp1085
VUserName
p1086
V@42576c041eeadc7b8f004af5a7edaaf6f92a3cc532c64d2c14fbe7dc20a3be39
p1087
sVCity
p1088
g44
sVDisplayName
p1089
g44
sVUniFriend
p1090
I0
sVMemberList
p1091
(lp1092
sVPYQuanPin
p1093
Vfaith
p1094
sVRemarkPYInitial
p1095
VWW
p1096
sVUin
p1097
I0
sVAppAccountFlag
p1098
I0
sVVerifyFlag
p1099
I0
sVProvince
p1100
g44
sVKeyWord
p1101
g44
sVRemarkName
p1102
V\u738b\u4f1f
p1103
sVPYInitial
p1104
VFAITH
p1105
sVChatRoomId
p1106
I0
sVIsOwner
p1107
I0
sVHideInputBarFlag
p1108
I0
sVEncryChatRoomId
p1109
g44
sVAttrStatus
p1110
I233573
sVSnsFlag
p1111
I256
sVMemberCount
p1112
I0
sVOwnerUin
p1113
I0
sVAlias
p1114
g44
sVSignature
p1115
g44
sVContactFlag
p1116
I1
sVNickName
p1117
Vfaith
p1118
sVRemarkPYQuanPin
p1119
Vwangwei
p1120
sVHeadImgUrl
p1121
V/cgi-bin/mmwebwx-bin/webwxgeticon?seq=681319482&username=@42576c041eeadc7b8f004af5a7edaaf6f92a3cc532c64d2c14fbe7dc20a3be39&skey=@crypt_c4463405_3b7c724258920b3156a723070c0a22f1
p1122
sVSex
p1123
I1
sVStarFriend
p1124
I0
sVStatues
p1125
I0
sa(dp1126
VUserName
p1127
V@8966ec1451da6e973291120e3d46b221056e8dbba8451fdcee9160437956417b
p1128
sVCity
p1129
g44
sVDisplayName
p1130
g44
sVUniFriend
p1131
I0
sVMemberList
p1132
(lp1133
sVPYQuanPin
p1134
Vmahaojun
p1135
sVRemarkPYInitial
p1136
VMHJ
p1137
sVUin
p1138
I0
sVAppAccountFlag
p1139
I0
sVVerifyFlag
p1140
I0
sVProvince
p1141
g44
sVKeyWord
p1142
g44
sVRemarkName
p1143
V\u9a6c\u6d69\u94a7
p1144
sVPYInitial
p1145
VMHJ
p1146
sVChatRoomId
p1147
I0
sVIsOwner
p1148
I0
sVHideInputBarFlag
p1149
I0
sVEncryChatRoomId
p1150
g44
sVAttrStatus
p1151
I102501
sVSnsFlag
p1152
I257
sVMemberCount
p1153
I0
sVOwnerUin
p1154
I0
sVAlias
p1155
g44
sVSignature
p1156
g44
sVContactFlag
p1157
I1
sVNickName
p1158
V\u9a6c\u6d69\u94a7
p1159
sVRemarkPYQuanPin
p1160
Vmahaojun
p1161
sVHeadImgUrl
p1162
V/cgi-bin/mmwebwx-bin/webwxgeticon?seq=681320212&username=@8966ec1451da6e973291120e3d46b221056e8dbba8451fdcee9160437956417b&skey=@crypt_c4463405_3b7c724258920b3156a723070c0a22f1
p1163
sVSex
p1164
I0
sVStarFriend
p1165
I0
sVStatues
p1166
I0
sa(dp1167
VUserName
p1168
V@b82fb8a94f795321eec0d5fdaf728a1cd5fa533a11e374cdbe8c0ea78e486ebb
p1169
sVCity
p1170
V\u4f73\u6728\u65af
p1171
sVDisplayName
p1172
g44
sVUniFriend
p1173
I0
sVMemberList
p1174
(lp1175
sVPYQuanPin
p1176
Vhaizeikejijisuanjijiaoyupeixun
p1177
sVRemarkPYInitial
p1178
VYFZ
p1179
sVUin
p1180
I0
sVAppAccountFlag
p1181
I0
sVVerifyFlag
p1182
I0
sVProvince
p1183
V\u9ed1\u9f99\u6c5f
p1184
sVKeyWord
p1185
g44
sVRemarkName
p1186
V\u4e8e\u65b9\u6cfd
p1187
sVPYInitial
p1188
VHZKJJSJJYPX
p1189
sVChatRoomId
p1190
I0
sVIsOwner
p1191
I0
sVHideInputBarFlag
p1192
I0
sVEncryChatRoomId
p1193
g44
sVAttrStatus
p1194
I102501
sVSnsFlag
p1195
I257
sVMemberCount
p1196
I0
sVOwnerUin
p1197
I0
sVAlias
p1198
g44
sVSignature
p1199
V\uff5e\uff5e\uff5e
p1200
sVContactFlag
p1201
I1
sVNickName
p1202
V\u6d77\u8d3c\u79d1\u6280\u8ba1\u7b97\u673a\u6559\u80b2\u57f9\u8bad
p1203
sVRemarkPYQuanPin
p1204
Vyufangze
p1205
sVHeadImgUrl
p1206
V/cgi-bin/mmwebwx-bin/webwxgeticon?seq=681320309&username=@b82fb8a94f795321eec0d5fdaf728a1cd5fa533a11e374cdbe8c0ea78e486ebb&skey=@crypt_c4463405_3b7c724258920b3156a723070c0a22f1
p1207
sVSex
p1208
I1
sVStarFriend
p1209
I0
sVStatues
p1210
I0
sa(dp1211
VUserName
p1212
V@48330d0f20d467399139bd133f71caf7e8061a9b9010fb29334d3d74e865e808
p1213
sVCity
p1214
VWhite Plains
p1215
sVDisplayName
p1216
g44
sVUniFriend
p1217
I0
sVMemberList
p1218
(lp1219
sVPYQuanPin
p1220
Vnameless
p1221
sVRemarkPYInitial
p1222
VRC
p1223
sVUin
p1224
I0
sVAppAccountFlag
p1225
I0
sVVerifyFlag
p1226
I0
sVProvince
p1227
VNew York
p1228
sVKeyWord
p1229
g44
sVRemarkName
p1230
V\u4efb\u91cd
p1231
sVPYInitial
p1232
VNAMELESS
p1233
sVChatRoomId
p1234
I0
sVIsOwner
p1235
I0
sVHideInputBarFlag
p1236
I0
sVEncryChatRoomId
p1237
g44
sVAttrStatus
p1238
I33689893
sVSnsFlag
p1239
I257
sVMemberCount
p1240
I0
sVOwnerUin
p1241
I0
sVAlias
p1242
g44
sVSignature
p1243
g44
sVContactFlag
p1244
I1
sVNickName
p1245
Vnameless
p1246
sVRemarkPYQuanPin
p1247
Vrenchong
p1248
sVHeadImgUrl
p1249
V/cgi-bin/mmwebwx-bin/webwxgeticon?seq=681320976&username=@48330d0f20d467399139bd133f71caf7e8061a9b9010fb29334d3d74e865e808&skey=@crypt_c4463405_3b7c724258920b3156a723070c0a22f1
p1250
sVSex
p1251
I0
sVStarFriend
p1252
I0
sVStatues
p1253
I0
sa(dp1254
VUserName
p1255
V@fd184046215d280634bc5c79247665ae7d56b2bcbeae11d12d949b6318ec4ba1
p1256
sVCity
p1257
V\u83cf\u6cfd
p1258
sVDisplayName
p1259
g44
sVUniFriend
p1260
I0
sVMemberList
p1261
(lp1262
sVPYQuanPin
p1263
VNite
p1264
sVRemarkPYInitial
p1265
VXYR
p1266
sVUin
p1267
I0
sVAppAccountFlag
p1268
I0
sVVerifyFlag
p1269
I0
sVProvince
p1270
V\u5c71\u4e1c
p1271
sVKeyWord
p1272
g44
sVRemarkName
p1273
V\u595a\u8273\u8363
p1274
sVPYInitial
p1275
VNITE
p1276
sVChatRoomId
p1277
I0
sVIsOwner
p1278
I0
sVHideInputBarFlag
p1279
I0
sVEncryChatRoomId
p1280
g44
sVAttrStatus
p1281
I102501
sVSnsFlag
p1282
I257
sVMemberCount
p1283
I0
sVOwnerUin
p1284
I0
sVAlias
p1285
g44
sVSignature
p1286
V\u6240\u4ee5\u73b0\u5728\u8981\u505a\u81ea\u5df1\u7684\u4e8b\u4e86
p1287
sVContactFlag
p1288
I1
sVNickName
p1289
VNite
p1290
sVRemarkPYQuanPin
p1291
Vxiyanrong
p1292
sVHeadImgUrl
p1293
V/cgi-bin/mmwebwx-bin/webwxgeticon?seq=681321158&username=@fd184046215d280634bc5c79247665ae7d56b2bcbeae11d12d949b6318ec4ba1&skey=@crypt_c4463405_3b7c724258920b3156a723070c0a22f1
p1294
sVSex
p1295
I2
sVStarFriend
p1296
I0
sVStatues
p1297
I0
sa(dp1298
VUserName
p1299
V@ea9395c3b90ecb7dac558d6113ecc0920e532f218d602bb5e9aa2f066580ae9b
p1300
sVCity
p1301
V\u6df1\u5733
p1302
sVDisplayName
p1303
g44
sVUniFriend
p1304
I0
sVMemberList
p1305
(lp1306
sVPYQuanPin
p1307
Vzhangxiaobaibubai
p1308
sVRemarkPYInitial
p1309
VZXT
p1310
sVUin
p1311
I0
sVAppAccountFlag
p1312
I0
sVVerifyFlag
p1313
I0
sVProvince
p1314
V\u5e7f\u4e1c
p1315
sVKeyWord
p1316
Vzha
p1317
sVRemarkName
p1318
V\u5f20\u96ea\u6d9b
p1319
sVPYInitial
p1320
VZXBBB
p1321
sVChatRoomId
p1322
I0
sVIsOwner
p1323
I0
sVHideInputBarFlag
p1324
I0
sVEncryChatRoomId
p1325
g44
sVAttrStatus
p1326
I112743
sVSnsFlag
p1327
I17
sVMemberCount
p1328
I0
sVOwnerUin
p1329
I0
sVAlias
p1330
g44
sVSignature
p1331
V\u76f8\u805a\u6709\u65f6\uff0c\u540e\u4f1a\u65e0\u671f
p1332
sVContactFlag
p1333
I1
sVNickName
p1334
V\u5f20\u5c0f\u767d\u4e0d\u767d
p1335
sVRemarkPYQuanPin
p1336
Vzhangxuetao
p1337
sVHeadImgUrl
p1338
V/cgi-bin/mmwebwx-bin/webwxgeticon?seq=681320775&username=@ea9395c3b90ecb7dac558d6113ecc0920e532f218d602bb5e9aa2f066580ae9b&skey=@crypt_c4463405_3b7c724258920b3156a723070c0a22f1
p1339
sVSex
p1340
I1
sVStarFriend
p1341
I0
sVStatues
p1342
I0
sa(dp1343
VUserName
p1344
V@f04e172acf7b13888eef6e8948b40658a973df4a6db15e3a96b652bcd5c86e57
p1345
sVCity
p1346
g44
sVDisplayName
p1347
g44
sVUniFriend
p1348
I0
sVMemberList
p1349
(lp1350
sVPYQuanPin
p1351
Vluanlongsheng
p1352
sVRemarkPYInitial
p1353
VLLS
p1354
sVUin
p1355
I0
sVAppAccountFlag
p1356
I0
sVVerifyFlag
p1357
I0
sVProvince
p1358
VHamburg
p1359
sVKeyWord
p1360
g44
sVRemarkName
p1361
V\u683e\u9f99\u751f
p1362
sVPYInitial
p1363
VLLS
p1364
sVChatRoomId
p1365
I0
sVIsOwner
p1366
I0
sVHideInputBarFlag
p1367
I0
sVEncryChatRoomId
p1368
g44
sVAttrStatus
p1369
I98597
sVSnsFlag
p1370
I1
sVMemberCount
p1371
I0
sVOwnerUin
p1372
I0
sVAlias
p1373
g44
sVSignature
p1374
V\u4e7e\u5764\u672a\u5b9a \u4f60\u6211\u7686\u9ed1\u9a6c<span class="emoji emoji1f4aa"></span>\U0001f3ff
p1375
sVContactFlag
p1376
I1
sVNickName
p1377
V\u683e\u9f99\u751f
p1378
sVRemarkPYQuanPin
p1379
Vluanlongsheng
p1380
sVHeadImgUrl
p1381
V/cgi-bin/mmwebwx-bin/webwxgeticon?seq=681294452&username=@f04e172acf7b13888eef6e8948b40658a973df4a6db15e3a96b652bcd5c86e57&skey=@crypt_c4463405_3b7c724258920b3156a723070c0a22f1
p1382
sVSex
p1383
I1
sVStarFriend
p1384
I0
sVStatues
p1385
I0
sa(dp1386
VUserName
p1387
V@44c345e70287abb4a565b5733d660f5905c7055abdf7a011a273e732dbe67c7d
p1388
sVCity
p1389
V\u6b66\u6c49
p1390
sVDisplayName
p1391
g44
sVUniFriend
p1392
I0
sVMemberList
p1393
(lp1394
sVPYQuanPin
p1395
VBRian
p1396
sVRemarkPYInitial
p1397
VXF
p1398
sVUin
p1399
I0
sVAppAccountFlag
p1400
I0
sVVerifyFlag
p1401
I0
sVProvince
p1402
V\u6e56\u5317
p1403
sVKeyWord
p1404
g44
sVRemarkName
p1405
V\u8bb8\u4e30
p1406
sVPYInitial
p1407
VBRIAN
p1408
sVChatRoomId
p1409
I0
sVIsOwner
p1410
I0
sVHideInputBarFlag
p1411
I0
sVEncryChatRoomId
p1412
g44
sVAttrStatus
p1413
I33558885
sVSnsFlag
p1414
I0
sVMemberCount
p1415
I0
sVOwnerUin
p1416
I0
sVAlias
p1417
g44
sVSignature
p1418
g44
sVContactFlag
p1419
I1
sVNickName
p1420
VBRian
p1421
sVRemarkPYQuanPin
p1422
Vxufeng
p1423
sVHeadImgUrl
p1424
V/cgi-bin/mmwebwx-bin/webwxgeticon?seq=681323550&username=@44c345e70287abb4a565b5733d660f5905c7055abdf7a011a273e732dbe67c7d&skey=@crypt_c4463405_3b7c724258920b3156a723070c0a22f1
p1425
sVSex
p1426
I1
sVStarFriend
p1427
I0
sVStatues
p1428
I0
sa(dp1429
VUserName
p1430
V@f7c14ce7dd9628b1ffea2c784a71ccd73d0b2162e653ae065e9dd60b41f9ba33
p1431
sVCity
p1432
V\u6e05\u8fdc
p1433
sVDisplayName
p1434
g44
sVUniFriend
p1435
I0
sVMemberList
p1436
(lp1437
sVPYQuanPin
p1438
VHWQ
p1439
sVRemarkPYInitial
p1440
VHWQ
p1441
sVUin
p1442
I0
sVAppAccountFlag
p1443
I0
sVVerifyFlag
p1444
I0
sVProvince
p1445
V\u5e7f\u4e1c
p1446
sVKeyWord
p1447
g44
sVRemarkName
p1448
V\u9ec4\u709c\u94e8
p1449
sVPYInitial
p1450
VHWQ
p1451
sVChatRoomId
p1452
I0
sVIsOwner
p1453
I0
sVHideInputBarFlag
p1454
I0
sVEncryChatRoomId
p1455
g44
sVAttrStatus
p1456
I4197
sVSnsFlag
p1457
I273
sVMemberCount
p1458
I0
sVOwnerUin
p1459
I0
sVAlias
p1460
g44
sVSignature
p1461
g44
sVContactFlag
p1462
I1
sVNickName
p1463
VHWQ
p1464
sVRemarkPYQuanPin
p1465
Vhuangweiquan
p1466
sVHeadImgUrl
p1467
V/cgi-bin/mmwebwx-bin/webwxgeticon?seq=681308826&username=@f7c14ce7dd9628b1ffea2c784a71ccd73d0b2162e653ae065e9dd60b41f9ba33&skey=@crypt_c4463405_3b7c724258920b3156a723070c0a22f1
p1468
sVSex
p1469
I1
sVStarFriend
p1470
I0
sVStatues
p1471
I0
sa(dp1472
VUserName
p1473
V@fa219a3c22eec8233383c633339a4c848003f717eddb04cd9871100ca45331d4
p1474
sVCity
p1475
V\u54c8\u5c14\u6ee8
p1476
sVDisplayName
p1477
g44
sVUniFriend
p1478
I0
sVMemberList
p1479
(lp1480
sVPYQuanPin
p1481
Vspanclassemojiemoji1f42cspan
p1482
sVRemarkPYInitial
p1483
VYYQ
p1484
sVUin
p1485
I0
sVAppAccountFlag
p1486
I0
sVVerifyFlag
p1487
I0
sVProvince
p1488
V\u9ed1\u9f99\u6c5f
p1489
sVKeyWord
p1490
Vxia
p1491
sVRemarkName
p1492
V\u95eb\u96e8\u6674
p1493
sVPYInitial
p1494
VSPANCLASSEMOJIEMOJI1F42CSPAN
p1495
sVChatRoomId
p1496
I0
sVIsOwner
p1497
I0
sVHideInputBarFlag
p1498
I0
sVEncryChatRoomId
p1499
g44
sVAttrStatus
p1500
I99775
sVSnsFlag
p1501
I305
sVMemberCount
p1502
I0
sVOwnerUin
p1503
I0
sVAlias
p1504
g44
sVSignature
p1505
V\u61c2\u4e8b \u6709\u8da3 \u4fdd\u6301\u7406\u667a
p1506
sVContactFlag
p1507
I1
sVNickName
p1508
V\U0001f42c
p1509
sVRemarkPYQuanPin
p1510
Vyanyuqing
p1511
sVHeadImgUrl
p1512
V/cgi-bin/mmwebwx-bin/webwxgeticon?seq=681320995&username=@fa219a3c22eec8233383c633339a4c848003f717eddb04cd9871100ca45331d4&skey=@crypt_c4463405_3b7c724258920b3156a723070c0a22f1
p1513
sVSex
p1514
I2
sVStarFriend
p1515
I0
sVStatues
p1516
I0
sa(dp1517
VUserName
p1518
V@c576ff5b6f7c35205023e1e1d1565632610db2b3529b7530e81a1376e4b860cd
p1519
sVCity
p1520
g44
sVDisplayName
p1521
g44
sVUniFriend
p1522
I0
sVMemberList
p1523
(lp1524
sVPYQuanPin
p1525
Vdaayao?
p1526
sVRemarkPYInitial
p1527
VYY
p1528
sVUin
p1529
I0
sVAppAccountFlag
p1530
I0
sVVerifyFlag
p1531
I0
sVProvince
p1532
g44
sVKeyWord
p1533
g44
sVRemarkName
p1534
V\u59da\u5b87
p1535
sVPYInitial
p1536
VDAY?
p1537
sVChatRoomId
p1538
I0
sVIsOwner
p1539
I0
sVHideInputBarFlag
p1540
I0
sVEncryChatRoomId
p1541
g44
sVAttrStatus
p1542
I2181140965
sVSnsFlag
p1543
I1
sVMemberCount
p1544
I0
sVOwnerUin
p1545
I0
sVAlias
p1546
g44
sVSignature
p1547
g44
sVContactFlag
p1548
I1
sVNickName
p1549
V\u5927\u963f\u59da \U0001f914
p1550
sVRemarkPYQuanPin
p1551
Vyaoyu
p1552
sVHeadImgUrl
p1553
V/cgi-bin/mmwebwx-bin/webwxgeticon?seq=681323806&username=@c576ff5b6f7c35205023e1e1d1565632610db2b3529b7530e81a1376e4b860cd&skey=@crypt_c4463405_3b7c724258920b3156a723070c0a22f1
p1554
sVSex
p1555
I1
sVStarFriend
p1556
I0
sVStatues
p1557
I0
sa(dp1558
VUserName
p1559
V@657ff947b328b889f37b1f0bfa4a0a45
p1560
sVCity
p1561
V\u6210\u90fd
p1562
sVDisplayName
p1563
g44
sVUniFriend
p1564
I0
sVMemberList
p1565
(lp1566
sVPYQuanPin
p1567
Vrrrainbow
p1568
sVRemarkPYInitial
p1569
VDG
p1570
sVUin
p1571
I0
sVAppAccountFlag
p1572
I0
sVVerifyFlag
p1573
I0
sVProvince
p1574
V\u56db\u5ddd
p1575
sVKeyWord
p1576
Vzha
p1577
sVRemarkName
p1578
V\u4ee3\u8d2d
p1579
sVPYInitial
p1580
VRRRAINBOW
p1581
sVChatRoomId
p1582
I0
sVIsOwner
p1583
I0
sVHideInputBarFlag
p1584
I0
sVEncryChatRoomId
p1585
g44
sVAttrStatus
p1586
I104485
sVSnsFlag
p1587
I49
sVMemberCount
p1588
I0
sVOwnerUin
p1589
I0
sVAlias
p1590
g44
sVSignature
p1591
V\U0001f984\ufe0f
p1592
sVContactFlag
p1593
I1
sVNickName
p1594
Vrrrainbow_
p1595
sVRemarkPYQuanPin
p1596
Vdaigou
p1597
sVHeadImgUrl
p1598
V/cgi-bin/mmwebwx-bin/webwxgeticon?seq=681269228&username=@657ff947b328b889f37b1f0bfa4a0a45&skey=@crypt_c4463405_3b7c724258920b3156a723070c0a22f1
p1599
sVSex
p1600
I2
sVStarFriend
p1601
I0
sVStatues
p1602
I0
sa(dp1603
VUserName
p1604
V@aebf4a5f20ff24da3614ad10c4cf53ad952820dff371157fb68d41b2c43fd158
p1605
sVCity
p1606
V\u6b66\u6c49
p1607
sVDisplayName
p1608
g44
sVUniFriend
p1609
I0
sVMemberList
p1610
(lp1611
sVPYQuanPin
p1612
Vchengfengpolang
p1613
sVRemarkPYInitial
p1614
VJ
p1615
sVUin
p1616
I0
sVAppAccountFlag
p1617
I0
sVVerifyFlag
p1618
I0
sVProvince
p1619
V\u6e56\u5317
p1620
sVKeyWord
p1621
g44
sVRemarkName
p1622
V\u8205
p1623
sVPYInitial
p1624
VCFPL
p1625
sVChatRoomId
p1626
I0
sVIsOwner
p1627
I0
sVHideInputBarFlag
p1628
I0
sVEncryChatRoomId
p1629
g44
sVAttrStatus
p1630
I69733
sVSnsFlag
p1631
I17
sVMemberCount
p1632
I0
sVOwnerUin
p1633
I0
sVAlias
p1634
g44
sVSignature
p1635
V\u4eba\u95f4\u767e\u79cd\u6c79\u6d8c\uff0c\u603b\u6709\u6765\u7531\u3002\u547d\u4e2d\u4e07\u822c\u5386\u7ec3\uff0c\u7686\u662f\u9020\u5316\u3002
p1636
sVContactFlag
p1637
I1
sVNickName
p1638
V\u4e58\u98ce\u7834\u6d6a
p1639
sVRemarkPYQuanPin
p1640
Vjiu
p1641
sVHeadImgUrl
p1642
V/cgi-bin/mmwebwx-bin/webwxgeticon?seq=681285016&username=@aebf4a5f20ff24da3614ad10c4cf53ad952820dff371157fb68d41b2c43fd158&skey=@crypt_c4463405_3b7c724258920b3156a723070c0a22f1
p1643
sVSex
p1644
I1
sVStarFriend
p1645
I0
sVStatues
p1646
I0
sa(dp1647
VUserName
p1648
V@6bc563f786c9aa15781bb5e13206b5394cfff7162c19f4439541b86c052030e7
p1649
sVCity
p1650
g44
sVDisplayName
p1651
g44
sVUniFriend
p1652
I0
sVMemberList
p1653
(lp1654
sVPYQuanPin
p1655
Vliaoweiyi
p1656
sVRemarkPYInitial
p1657
VLWY
p1658
sVUin
p1659
I0
sVAppAccountFlag
p1660
I0
sVVerifyFlag
p1661
I0
sVProvince
p1662
g44
sVKeyWord
p1663
g44
sVRemarkName
p1664
V\u5ed6\u851a\u4e00
p1665
sVPYInitial
p1666
VLWY
p1667
sVChatRoomId
p1668
I0
sVIsOwner
p1669
I0
sVHideInputBarFlag
p1670
I0
sVEncryChatRoomId
p1671
g44
sVAttrStatus
p1672
I102437
sVSnsFlag
p1673
I0
sVMemberCount
p1674
I0
sVOwnerUin
p1675
I0
sVAlias
p1676
g44
sVSignature
p1677
g44
sVContactFlag
p1678
I1
sVNickName
p1679
V\u5ed6\u851a\u4e00
p1680
sVRemarkPYQuanPin
p1681
Vliaoweiyi
p1682
sVHeadImgUrl
p1683
V/cgi-bin/mmwebwx-bin/webwxgeticon?seq=681310592&username=@6bc563f786c9aa15781bb5e13206b5394cfff7162c19f4439541b86c052030e7&skey=@crypt_c4463405_3b7c724258920b3156a723070c0a22f1
p1684
sVSex
p1685
I2
sVStarFriend
p1686
I0
sVStatues
p1687
I0
sa(dp1688
VUserName
p1689
V@8a396b69f2275ad56246963d6f085f40f47173f5ed42d3cae0ea8b529b3accde
p1690
sVCity
p1691
g44
sVDisplayName
p1692
g44
sVUniFriend
p1693
I0
sVMemberList
p1694
(lp1695
sVPYQuanPin
p1696
VRename
p1697
sVRemarkPYInitial
p1698
VLWZ
p1699
sVUin
p1700
I0
sVAppAccountFlag
p1701
I0
sVVerifyFlag
p1702
I0
sVProvince
p1703
g44
sVKeyWord
p1704
g44
sVRemarkName
p1705
V\u5ed6\u536b\u653f
p1706
sVPYInitial
p1707
VRENAME
p1708
sVChatRoomId
p1709
I0
sVIsOwner
p1710
I0
sVHideInputBarFlag
p1711
I0
sVEncryChatRoomId
p1712
g44
sVAttrStatus
p1713
I106599
sVSnsFlag
p1714
I273
sVMemberCount
p1715
I0
sVOwnerUin
p1716
I0
sVAlias
p1717
g44
sVSignature
p1718
V\u5df1\u6240\u4e0d\u6b32\uff0c\u52ff\u65bd\u4e8e\u4eba
p1719
sVContactFlag
p1720
I1
sVNickName
p1721
VRename
p1722
sVRemarkPYQuanPin
p1723
Vliaoweizheng
p1724
sVHeadImgUrl
p1725
V/cgi-bin/mmwebwx-bin/webwxgeticon?seq=681314753&username=@8a396b69f2275ad56246963d6f085f40f47173f5ed42d3cae0ea8b529b3accde&skey=@crypt_c4463405_3b7c724258920b3156a723070c0a22f1
p1726
sVSex
p1727
I1
sVStarFriend
p1728
I0
sVStatues
p1729
I0
sa(dp1730
VUserName
p1731
V@0e10aa556143994566f2450a4a9eaa7be92aab520070383141dbee16aa9e294c
p1732
sVCity
p1733
g44
sVDisplayName
p1734
g44
sVUniFriend
p1735
I0
sVMemberList
p1736
(lp1737
sVPYQuanPin
p1738
VDevilorAngelyan
p1739
sVRemarkPYInitial
p1740
VTZY
p1741
sVUin
p1742
I0
sVAppAccountFlag
p1743
I0
sVVerifyFlag
p1744
I0
sVProvince
p1745
g44
sVKeyWord
p1746
g44
sVRemarkName
p1747
V\u6c64\u5353\u598d
p1748
sVPYInitial
p1749
VDEVILORANGELY
p1750
sVChatRoomId
p1751
I0
sVIsOwner
p1752
I0
sVHideInputBarFlag
p1753
I0
sVEncryChatRoomId
p1754
g44
sVAttrStatus
p1755
I102437
sVSnsFlag
p1756
I0
sVMemberCount
p1757
I0
sVOwnerUin
p1758
I0
sVAlias
p1759
g44
sVSignature
p1760
VBelieve   that   you   will   have   a   brilliant   day
p1761
sVContactFlag
p1762
I1
sVNickName
p1763
VDevil   or   Angel    \u598d
p1764
sVRemarkPYQuanPin
p1765
Vtangzhuoyan
p1766
sVHeadImgUrl
p1767
V/cgi-bin/mmwebwx-bin/webwxgeticon?seq=681321949&username=@0e10aa556143994566f2450a4a9eaa7be92aab520070383141dbee16aa9e294c&skey=@crypt_c4463405_3b7c724258920b3156a723070c0a22f1
p1768
sVSex
p1769
I2
sVStarFriend
p1770
I0
sVStatues
p1771
I0
sa(dp1772
VUserName
p1773
V@b43a992c0b7dd8bd71b6adf2d8437653708a1ba04a491cfadbc9fb9f86c5f26a
p1774
sVCity
p1775
g44
sVDisplayName
p1776
g44
sVUniFriend
p1777
I0
sVMemberList
p1778
(lp1779
sVPYQuanPin
p1780
Vxiaochong
p1781
sVRemarkPYInitial
p1782
VY
p1783
sVUin
p1784
I0
sVAppAccountFlag
p1785
I0
sVVerifyFlag
p1786
I0
sVProvince
p1787
g44
sVKeyWord
p1788
g44
sVRemarkName
p1789
V\u59e8
p1790
sVPYInitial
p1791
VXC
p1792
sVChatRoomId
p1793
I0
sVIsOwner
p1794
I0
sVHideInputBarFlag
p1795
I0
sVEncryChatRoomId
p1796
g44
sVAttrStatus
p1797
I4133
sVSnsFlag
p1798
I257
sVMemberCount
p1799
I0
sVOwnerUin
p1800
I0
sVAlias
p1801
g44
sVSignature
p1802
g44
sVContactFlag
p1803
I1
sVNickName
p1804
V\u5c0f\u7fc0
p1805
sVRemarkPYQuanPin
p1806
Vyi
p1807
sVHeadImgUrl
p1808
V/cgi-bin/mmwebwx-bin/webwxgeticon?seq=679168990&username=@b43a992c0b7dd8bd71b6adf2d8437653708a1ba04a491cfadbc9fb9f86c5f26a&skey=@crypt_c4463405_3b7c724258920b3156a723070c0a22f1
p1809
sVSex
p1810
I0
sVStarFriend
p1811
I0
sVStatues
p1812
I0
sa(dp1813
VUserName
p1814
V@cabdb6df377d1111369f9548545f49ddbbb868a222cd97bb9c72a571d92abb6d
p1815
sVCity
p1816
V\u6b66\u6c49
p1817
sVDisplayName
p1818
g44
sVUniFriend
p1819
I0
sVMemberList
p1820
(lp1821
sVPYQuanPin
p1822
Vzengjiaguan
p1823
sVRemarkPYInitial
p1824
VYD
p1825
sVUin
p1826
I0
sVAppAccountFlag
p1827
I0
sVVerifyFlag
p1828
I0
sVProvince
p1829
V\u6e56\u5317
p1830
sVKeyWord
p1831
g44
sVRemarkName
p1832
V\u59e8\u7239
p1833
sVPYInitial
p1834
VZJG
p1835
sVChatRoomId
p1836
I0
sVIsOwner
p1837
I0
sVHideInputBarFlag
p1838
I0
sVEncryChatRoomId
p1839
g44
sVAttrStatus
p1840
I4133
sVSnsFlag
p1841
I257
sVMemberCount
p1842
I0
sVOwnerUin
p1843
I0
sVAlias
p1844
g44
sVSignature
p1845
V\u66fe\u8273\u56fd
p1846
sVContactFlag
p1847
I1
sVNickName
p1848
V\u66fe\u5609\u51a0
p1849
sVRemarkPYQuanPin
p1850
Vyidie
p1851
sVHeadImgUrl
p1852
V/cgi-bin/mmwebwx-bin/webwxgeticon?seq=681238304&username=@cabdb6df377d1111369f9548545f49ddbbb868a222cd97bb9c72a571d92abb6d&skey=@crypt_c4463405_3b7c724258920b3156a723070c0a22f1
p1853
sVSex
p1854
I1
sVStarFriend
p1855
I0
sVStatues
p1856
I0
sa(dp1857
VUserName
p1858
V@897a1042b78b8ab0f2f6f465cdfd65278018a4f4d6822a3b270efa7a39e5fd35
p1859
sVCity
p1860
g44
sVDisplayName
p1861
g44
sVUniFriend
p1862
I0
sVMemberList
p1863
(lp1864
sVPYQuanPin
p1865
Vyulanhuan
p1866
sVRemarkPYInitial
p1867
VTZB
p1868
sVUin
p1869
I0
sVAppAccountFlag
p1870
I0
sVVerifyFlag
p1871
I0
sVProvince
p1872
VGeneve
p1873
sVKeyWord
p1874
g44
sVRemarkName
p1875
V\u4f5f\u5fd7\u535a
p1876
sVPYInitial
p1877
VYLH
p1878
sVChatRoomId
p1879
I0
sVIsOwner
p1880
I0
sVHideInputBarFlag
p1881
I0
sVEncryChatRoomId
p1882
g44
sVAttrStatus
p1883
I105405
sVSnsFlag
p1884
I257
sVMemberCount
p1885
I0
sVOwnerUin
p1886
I0
sVAlias
p1887
g44
sVSignature
p1888
V\u521d\u65f6\u4e0d\u77e5\u66f2\u4e2d\u610f\uff0c\u518d\u95fb\u5df2\u662f\u66f2\u4e2d\u4eba
p1889
sVContactFlag
p1890
I1
sVNickName
p1891
V\u4f59\u6f9c\u6b22
p1892
sVRemarkPYQuanPin
p1893
Vtongzhibo
p1894
sVHeadImgUrl
p1895
V/cgi-bin/mmwebwx-bin/webwxgeticon?seq=681318799&username=@897a1042b78b8ab0f2f6f465cdfd65278018a4f4d6822a3b270efa7a39e5fd35&skey=@crypt_c4463405_3b7c724258920b3156a723070c0a22f1
p1896
sVSex
p1897
I1
sVStarFriend
p1898
I0
sVStatues
p1899
I0
sa(dp1900
VUserName
p1901
V@ebee66e23b822830675a3f0b6aed11a3c4945ec1ec67eb03f29c659c671df84d
p1902
sVCity
p1903
g44
sVDisplayName
p1904
g44
sVUniFriend
p1905
I0
sVMemberList
p1906
(lp1907
sVPYQuanPin
p1908
Vkashazaixiangpeach
p1909
sVRemarkPYInitial
p1910
VWQ
p1911
sVUin
p1912
I0
sVAppAccountFlag
p1913
I0
sVVerifyFlag
p1914
I0
sVProvince
p1915
VMayo
p1916
sVKeyWord
p1917
g44
sVRemarkName
p1918
V\u738b\u52cd
p1919
sVPYInitial
p1920
VKSZXPEACH
p1921
sVChatRoomId
p1922
I0
sVIsOwner
p1923
I0
sVHideInputBarFlag
p1924
I0
sVEncryChatRoomId
p1925
g44
sVAttrStatus
p1926
I105405
sVSnsFlag
p1927
I257
sVMemberCount
p1928
I0
sVOwnerUin
p1929
I0
sVAlias
p1930
g44
sVSignature
p1931
V\u89c6\u7ebf\u6240\u53ca\u53ea\u5269\u751f\u6d3b
p1932
sVContactFlag
p1933
I1
sVNickName
p1934
V\u5361\u838e\u5728\u60f3peach
p1935
sVRemarkPYQuanPin
p1936
Vwangqing
p1937
sVHeadImgUrl
p1938
V/cgi-bin/mmwebwx-bin/webwxgeticon?seq=681323243&username=@ebee66e23b822830675a3f0b6aed11a3c4945ec1ec67eb03f29c659c671df84d&skey=@crypt_c4463405_3b7c724258920b3156a723070c0a22f1
p1939
sVSex
p1940
I1
sVStarFriend
p1941
I0
sVStatues
p1942
I0
sa(dp1943
VUserName
p1944
V@716945f1de8c4d48a65aadb1a7ccdb84
p1945
sVCity
p1946
g44
sVDisplayName
p1947
g44
sVUniFriend
p1948
I0
sVMemberList
p1949
(lp1950
sVPYQuanPin
p1951
Vjiu
p1952
sVRemarkPYInitial
p1953
VYZJ
p1954
sVUin
p1955
I0
sVAppAccountFlag
p1956
I0
sVVerifyFlag
p1957
I0
sVProvince
p1958
VParis
p1959
sVKeyWord
p1960
VJea
p1961
sVRemarkName
p1962
V\u9633\u6cbb\u7396
p1963
sVPYInitial
p1964
g1615
sVChatRoomId
p1965
I0
sVIsOwner
p1966
I0
sVHideInputBarFlag
p1967
I0
sVEncryChatRoomId
p1968
g44
sVAttrStatus
p1969
I233509
sVSnsFlag
p1970
I257
sVMemberCount
p1971
I0
sVOwnerUin
p1972
I0
sVAlias
p1973
g44
sVSignature
p1974
V\u6240\u8b02\u611b\u597d\u4e0d\u904e\u662f\u4e00\u7a2e\u4f5c\u8327\u81ea\u7e1b\u2026
p1975
sVContactFlag
p1976
I1
sVNickName
p1977
V\u7396
p1978
sVRemarkPYQuanPin
p1979
Vyangzhijiu
p1980
sVHeadImgUrl
p1981
V/cgi-bin/mmwebwx-bin/webwxgeticon?seq=681324273&username=@716945f1de8c4d48a65aadb1a7ccdb84&skey=@crypt_c4463405_3b7c724258920b3156a723070c0a22f1
p1982
sVSex
p1983
I1
sVStarFriend
p1984
I0
sVStatues
p1985
I0
sa(dp1986
VUserName
p1987
V@c3387910644e14ce4df23ddab145a4e05d3d5cf65da43fd0f6a3e8cbcb872e5f
p1988
sVCity
p1989
g44
sVDisplayName
p1990
g44
sVUniFriend
p1991
I0
sVMemberList
p1992
(lp1993
sVPYQuanPin
p1994
Vjitang
p1995
sVRemarkPYInitial
p1996
VLYQ
p1997
sVUin
p1998
I0
sVAppAccountFlag
p1999
I0
sVVerifyFlag
p2000
I0
sVProvince
p2001
g44
sVKeyWord
p2002
g44
sVRemarkName
p2003
V\u5362\u5b87\u742a
p2004
sVPYInitial
p2005
VJT
p2006
sVChatRoomId
p2007
I0
sVIsOwner
p2008
I0
sVHideInputBarFlag
p2009
I0
sVEncryChatRoomId
p2010
g44
sVAttrStatus
p2011
I6181
sVSnsFlag
p2012
I1
sVMemberCount
p2013
I0
sVOwnerUin
p2014
I0
sVAlias
p2015
g44
sVSignature
p2016
V\u7bb1\u6839\u5c71\u5cb3\u9669\u5929\u4e0b
p2017
sVContactFlag
p2018
I1
sVNickName
p2019
V\u5fcc\u7cd6
p2020
sVRemarkPYQuanPin
p2021
Vluyuqi
p2022
sVHeadImgUrl
p2023
V/cgi-bin/mmwebwx-bin/webwxgeticon?seq=681324483&username=@c3387910644e14ce4df23ddab145a4e05d3d5cf65da43fd0f6a3e8cbcb872e5f&skey=@crypt_c4463405_3b7c724258920b3156a723070c0a22f1
p2024
sVSex
p2025
I2
sVStarFriend
p2026
I0
sVStatues
p2027
I0
sa(dp2028
VUserName
p2029
V@bed0d5154492e663de979ac109f7df526c6b88b12b12b78ae62625bbe89e4d5e
p2030
sVCity
p2031
V\u660c\u5409
p2032
sVDisplayName
p2033
g44
sVUniFriend
p2034
I0
sVMemberList
p2035
(lp2036
sVPYQuanPin
p2037
Vyangzhinianliu
p2038
sVRemarkPYInitial
p2039
VSYB
p2040
sVUin
p2041
I0
sVAppAccountFlag
p2042
I0
sVVerifyFlag
p2043
I0
sVProvince
p2044
V\u65b0\u7586
p2045
sVKeyWord
p2046
g44
sVRemarkName
p2047
V\u5bbf\u53f6\u84d3
p2048
sVPYInitial
p2049
VYZNL
p2050
sVChatRoomId
p2051
I0
sVIsOwner
p2052
I0
sVHideInputBarFlag
p2053
I0
sVEncryChatRoomId
p2054
g44
sVAttrStatus
p2055
I233509
sVSnsFlag
p2056
I1
sVMemberCount
p2057
I0
sVOwnerUin
p2058
I0
sVAlias
p2059
g44
sVSignature
p2060
V\u7f3a\u61be\u662f\u4e00\u79cd\u6d6a\u6f2b\uff0c\u5f88\u591a\u4eba\u8fd8\u7fa1\u6155\u4e0d\u6765
p2061
sVContactFlag
p2062
I1
sVNickName
p2063
V\u9633\u6b62\u5eff\u516d
p2064
sVRemarkPYQuanPin
p2065
Vsuyebei
p2066
sVHeadImgUrl
p2067
V/cgi-bin/mmwebwx-bin/webwxgeticon?seq=681283839&username=@bed0d5154492e663de979ac109f7df526c6b88b12b12b78ae62625bbe89e4d5e&skey=@crypt_c4463405_3b7c724258920b3156a723070c0a22f1
p2068
sVSex
p2069
I2
sVStarFriend
p2070
I0
sVStatues
p2071
I0
sa(dp2072
VUserName
p2073
V@98e2079e723b439b97c7d2ca5650d42735f31f7227d8ed91099e7769c9217b6d
p2074
sVCity
p2075
V\u4ed9\u6843
p2076
sVDisplayName
p2077
g44
sVUniFriend
p2078
I0
sVMemberList
p2079
(lp2080
sVPYQuanPin
p2081
Vzhangjiaolian
p2082
sVRemarkPYInitial
p2083
VJL
p2084
sVUin
p2085
I0
sVAppAccountFlag
p2086
I0
sVVerifyFlag
p2087
I0
sVProvince
p2088
V\u6e56\u5317
p2089
sVKeyWord
p2090
g44
sVRemarkName
p2091
V\u6559\u7ec3
p2092
sVPYInitial
p2093
VZJL
p2094
sVChatRoomId
p2095
I0
sVIsOwner
p2096
I0
sVHideInputBarFlag
p2097
I0
sVEncryChatRoomId
p2098
g44
sVAttrStatus
p2099
I114725
sVSnsFlag
p2100
I257
sVMemberCount
p2101
I0
sVOwnerUin
p2102
I0
sVAlias
p2103
g44
sVSignature
p2104
V\u7279\u8bbeVlP\u73ed\uff0c\u62ff\u8bc1\u8d39\u7528\u5168\u5305\u5e72\u3002\u57ce\u533a\u63a5\u9001\u3002
p2105
sVContactFlag
p2106
I65537
sVNickName
p2107
V\u5f20\u6559\u7ec3
p2108
sVRemarkPYQuanPin
p2109
Vjiaolian
p2110
sVHeadImgUrl
p2111
V/cgi-bin/mmwebwx-bin/webwxgeticon?seq=681237220&username=@98e2079e723b439b97c7d2ca5650d42735f31f7227d8ed91099e7769c9217b6d&skey=@crypt_c4463405_3b7c724258920b3156a723070c0a22f1
p2112
sVSex
p2113
I1
sVStarFriend
p2114
I0
sVStatues
p2115
I0
sa(dp2116
VUserName
p2117
V@1bd33475453f2b9d96bb6293b92050cd
p2118
sVCity
p2119
V\u54c8\u5c14\u6ee8
p2120
sVDisplayName
p2121
g44
sVUniFriend
p2122
I0
sVMemberList
p2123
(lp2124
sVPYQuanPin
p2125
Vxiexiwen
p2126
sVRemarkPYInitial
p2127
VXXW
p2128
sVUin
p2129
I0
sVAppAccountFlag
p2130
I0
sVVerifyFlag
p2131
I0
sVProvince
p2132
V\u9ed1\u9f99\u6c5f
p2133
sVKeyWord
p2134
Vmyn
p2135
sVRemarkName
p2136
V\u89e3\u9521\u6587
p2137
sVPYInitial
p2138
VXXW
p2139
sVChatRoomId
p2140
I0
sVIsOwner
p2141
I0
sVHideInputBarFlag
p2142
I0
sVEncryChatRoomId
p2143
g44
sVAttrStatus
p2144
I33788455
sVSnsFlag
p2145
I17
sVMemberCount
p2146
I0
sVOwnerUin
p2147
I0
sVAlias
p2148
g44
sVSignature
p2149
V-,,-fighting
p2150
sVContactFlag
p2151
I65537
sVNickName
p2152
V\u89e3\u9521\u6587
p2153
sVRemarkPYQuanPin
p2154
Vxiexiwen
p2155
sVHeadImgUrl
p2156
V/cgi-bin/mmwebwx-bin/webwxgeticon?seq=681320668&username=@1bd33475453f2b9d96bb6293b92050cd&skey=@crypt_c4463405_3b7c724258920b3156a723070c0a22f1
p2157
sVSex
p2158
I1
sVStarFriend
p2159
I0
sVStatues
p2160
I0
sa(dp2161
VUserName
p2162
V@08134a5876fe92c733bcd9dd34d96e1a7e2144e38585540dbf797e2f8b1a15ac
p2163
sVCity
p2164
V\u5317\u533a
p2165
sVDisplayName
p2166
g44
sVUniFriend
p2167
I0
sVMemberList
p2168
(lp2169
sVPYQuanPin
p2170
Vnining
p2171
sVRemarkPYInitial
p2172
g44
sVUin
p2173
I0
sVAppAccountFlag
p2174
I0
sVVerifyFlag
p2175
I0
sVProvince
p2176
V\u9999\u6e2f
p2177
sVKeyWord
p2178
g44
sVRemarkName
p2179
g44
sVPYInitial
p2180
VNN
p2181
sVChatRoomId
p2182
I0
sVIsOwner
p2183
I0
sVHideInputBarFlag
p2184
I0
sVEncryChatRoomId
p2185
g44
sVAttrStatus
p2186
I102503
sVSnsFlag
p2187
I257
sVMemberCount
p2188
I0
sVOwnerUin
p2189
I0
sVAlias
p2190
g44
sVSignature
p2191
V\u4f60\u65e2\u7136\u6765\u4e86\u4eba\u95f4\u8fd9\u4e00\u906d \u5c31\u597d\u597d\u4f53\u9a8c \u6ca1\u4ec0\u4e48\u53ef\u4ee5\u88ab\u675f\u7f1a
p2192
sVContactFlag
p2193
I3
sVNickName
p2194
V\u6ce5\u6cde
p2195
sVRemarkPYQuanPin
p2196
g44
sVHeadImgUrl
p2197
V/cgi-bin/mmwebwx-bin/webwxgeticon?seq=681322492&username=@08134a5876fe92c733bcd9dd34d96e1a7e2144e38585540dbf797e2f8b1a15ac&skey=@crypt_c4463405_3b7c724258920b3156a723070c0a22f1
p2198
sVSex
p2199
I1
sVStarFriend
p2200
I0
sVStatues
p2201
I0
sa(dp2202
VUserName
p2203
V@e099a537d1287de5f0eb309975fe75326994bb0bc2c0f07f4b35bab31e474485
p2204
sVCity
p2205
g44
sVDisplayName
p2206
g44
sVUniFriend
p2207
I0
sVMemberList
p2208
(lp2209
sVPYQuanPin
p2210
VCH
p2211
sVRemarkPYInitial
p2212
VCH
p2213
sVUin
p2214
I0
sVAppAccountFlag
p2215
I0
sVVerifyFlag
p2216
I0
sVProvince
p2217
V\u6e56\u5317
p2218
sVKeyWord
p2219
g44
sVRemarkName
p2220
V\u660c\u8377
p2221
sVPYInitial
p2222
VCH
p2223
sVChatRoomId
p2224
I0
sVIsOwner
p2225
I0
sVHideInputBarFlag
p2226
I0
sVEncryChatRoomId
p2227
g44
sVAttrStatus
p2228
I102437
sVSnsFlag
p2229
I257
sVMemberCount
p2230
I0
sVOwnerUin
p2231
I0
sVAlias
p2232
g44
sVSignature
p2233
V\u52aa\u529b\u4e0a\u8fdb\u4e14\u4f18\u79c0
p2234
sVContactFlag
p2235
I1
sVNickName
p2236
VC  H
p2237
sVRemarkPYQuanPin
p2238
Vchanghe
p2239
sVHeadImgUrl
p2240
V/cgi-bin/mmwebwx-bin/webwxgeticon?seq=681325419&username=@e099a537d1287de5f0eb309975fe75326994bb0bc2c0f07f4b35bab31e474485&skey=@crypt_c4463405_3b7c724258920b3156a723070c0a22f1
p2241
sVSex
p2242
I2
sVStarFriend
p2243
I0
sVStatues
p2244
I0
sa(dp2245
VUserName
p2246
V@19b2a1f24fd62f089ef81e14fb7ea4bf689ba979398ce9be47bbe8386d1f45eb
p2247
sVCity
p2248
g44
sVDisplayName
p2249
g44
sVUniFriend
p2250
I0
sVMemberList
p2251
(lp2252
sVPYQuanPin
p2253
Vshaoping
p2254
sVRemarkPYInitial
p2255
g1783
sVUin
p2256
I0
sVAppAccountFlag
p2257
I0
sVVerifyFlag
p2258
I0
sVProvince
p2259
g44
sVKeyWord
p2260
g44
sVRemarkName
p2261
V\u7237
p2262
sVPYInitial
p2263
VSP
p2264
sVChatRoomId
p2265
I0
sVIsOwner
p2266
I0
sVHideInputBarFlag
p2267
I0
sVEncryChatRoomId
p2268
g44
sVAttrStatus
p2269
I102437
sVSnsFlag
p2270
I1
sVMemberCount
p2271
I0
sVOwnerUin
p2272
I0
sVAlias
p2273
g44
sVSignature
p2274
V\u4e0d\u80fd\u6539\u53d8\u522b\u4eba\u53ea\u80fd\u6539\u53d8\u81ea\u5df1\u4e0d\u80fd\u6539\u53d8\u751f\u6d3b\u53ea\u80fd\u9002\u5e94\u751f\u6d3b
p2275
sVContactFlag
p2276
I65537
sVNickName
p2277
V\u5c11\u5e73
p2278
sVRemarkPYQuanPin
p2279
Vye
p2280
sVHeadImgUrl
p2281
V/cgi-bin/mmwebwx-bin/webwxgeticon?seq=681324608&username=@19b2a1f24fd62f089ef81e14fb7ea4bf689ba979398ce9be47bbe8386d1f45eb&skey=@crypt_c4463405_3b7c724258920b3156a723070c0a22f1
p2282
sVSex
p2283
I0
sVStarFriend
p2284
I0
sVStatues
p2285
I0
sa(dp2286
VUserName
p2287
V@bb4b8af633e172fe0c61fad627c26328e414222e2045547b1842aac82e053f69
p2288
sVCity
p2289
V\u54c8\u5c14\u6ee8
p2290
sVDisplayName
p2291
g44
sVUniFriend
p2292
I0
sVMemberList
p2293
(lp2294
sVPYQuanPin
p2295
VYSV
p2296
sVRemarkPYInitial
p2297
VYSW
p2298
sVUin
p2299
I0
sVAppAccountFlag
p2300
I0
sVVerifyFlag
p2301
I0
sVProvince
p2302
V\u9ed1\u9f99\u6c5f
p2303
sVKeyWord
p2304
g44
sVRemarkName
p2305
V\u6768\u5c1a\u5a01
p2306
sVPYInitial
p2307
VYSV
p2308
sVChatRoomId
p2309
I0
sVIsOwner
p2310
I0
sVHideInputBarFlag
p2311
I0
sVEncryChatRoomId
p2312
g44
sVAttrStatus
p2313
I135357
sVSnsFlag
p2314
I257
sVMemberCount
p2315
I0
sVOwnerUin
p2316
I0
sVAlias
p2317
g44
sVSignature
p2318
VGuardian
p2319
sVContactFlag
p2320
I1
sVNickName
p2321
VYSV
p2322
sVRemarkPYQuanPin
p2323
Vyangshangwei
p2324
sVHeadImgUrl
p2325
V/cgi-bin/mmwebwx-bin/webwxgeticon?seq=681312705&username=@bb4b8af633e172fe0c61fad627c26328e414222e2045547b1842aac82e053f69&skey=@crypt_c4463405_3b7c724258920b3156a723070c0a22f1
p2326
sVSex
p2327
I1
sVStarFriend
p2328
I0
sVStatues
p2329
I0
sa(dp2330
VUserName
p2331
V@fd89d87e8ac787e5d0eb6b3692a1b0beb9f0a56cc537f5555cba7a385901cf3f
p2332
sVCity
p2333
V\u54c8\u5c14\u6ee8
p2334
sVDisplayName
p2335
g44
sVUniFriend
p2336
I0
sVMemberList
p2337
(lp2338
sVPYQuanPin
p2339
VnoSugar
p2340
sVRemarkPYInitial
p2341
VWWL
p2342
sVUin
p2343
I0
sVAppAccountFlag
p2344
I0
sVVerifyFlag
p2345
I0
sVProvince
p2346
V\u9ed1\u9f99\u6c5f
p2347
sVKeyWord
p2348
g44
sVRemarkName
p2349
V\u738b\u6587\u4eae
p2350
sVPYInitial
p2351
VNOSUGAR
p2352
sVChatRoomId
p2353
I0
sVIsOwner
p2354
I0
sVHideInputBarFlag
p2355
I0
sVEncryChatRoomId
p2356
g44
sVAttrStatus
p2357
I135525
sVSnsFlag
p2358
I257
sVMemberCount
p2359
I0
sVOwnerUin
p2360
I0
sVAlias
p2361
g44
sVSignature
p2362
VnoSugar
p2363
sVContactFlag
p2364
I1
sVNickName
p2365
VnoSugar
p2366
sVRemarkPYQuanPin
p2367
Vwangwenliang
p2368
sVHeadImgUrl
p2369
V/cgi-bin/mmwebwx-bin/webwxgeticon?seq=681325186&username=@fd89d87e8ac787e5d0eb6b3692a1b0beb9f0a56cc537f5555cba7a385901cf3f&skey=@crypt_c4463405_3b7c724258920b3156a723070c0a22f1
p2370
sVSex
p2371
I1
sVStarFriend
p2372
I0
sVStatues
p2373
I0
sa(dp2374
VUserName
p2375
V@12786623f9dfb98e62e3dfbcbe89a4280ca0a911294338563ea3065dbc251017
p2376
sVCity
p2377
V\u6b66\u6c49
p2378
sVDisplayName
p2379
g44
sVUniFriend
p2380
I0
sVMemberList
p2381
(lp2382
sVPYQuanPin
p2383
Vyinyun
p2384
sVRemarkPYInitial
p2385
VWY
p2386
sVUin
p2387
I0
sVAppAccountFlag
p2388
I0
sVVerifyFlag
p2389
I0
sVProvince
p2390
V\u6e56\u5317
p2391
sVKeyWord
p2392
g44
sVRemarkName
p2393
V\u738b\u97f5
p2394
sVPYInitial
p2395
VYY
p2396
sVChatRoomId
p2397
I0
sVIsOwner
p2398
I0
sVHideInputBarFlag
p2399
I0
sVEncryChatRoomId
p2400
g44
sVAttrStatus
p2401
I135293
sVSnsFlag
p2402
I1
sVMemberCount
p2403
I0
sVOwnerUin
p2404
I0
sVAlias
p2405
g44
sVSignature
p2406
V\u5c31\u7b97\u6709\u4e00\u5929\u4e00\u65e0\u6240\u6709\uff0c\u4e5f\u4e0d\u7f3a\u4ece\u5934\u518d\u6765\u7684\u52c7\u6c14
p2407
sVContactFlag
p2408
I1
sVNickName
p2409
V\u97f3\u5300
p2410
sVRemarkPYQuanPin
p2411
Vwangyun
p2412
sVHeadImgUrl
p2413
V/cgi-bin/mmwebwx-bin/webwxgeticon?seq=681326974&username=@12786623f9dfb98e62e3dfbcbe89a4280ca0a911294338563ea3065dbc251017&skey=@crypt_c4463405_3b7c724258920b3156a723070c0a22f1
p2414
sVSex
p2415
I2
sVStarFriend
p2416
I0
sVStatues
p2417
I0
sa(dp2418
VUserName
p2419
V@76ae56c3172f05e1db3217d76f567990b5c597c1611e35114953dd377ebed0e0
p2420
sVCity
p2421
V\u4e34\u6c82
p2422
sVDisplayName
p2423
g44
sVUniFriend
p2424
I0
sVMemberList
p2425
(lp2426
sVPYQuanPin
p2427
Vfangdong
p2428
sVRemarkPYInitial
p2429
VXZQ
p2430
sVUin
p2431
I0
sVAppAccountFlag
p2432
I0
sVVerifyFlag
p2433
I0
sVProvince
p2434
V\u5c71\u4e1c
p2435
sVKeyWord
p2436
g44
sVRemarkName
p2437
V\u5f90\u5fd7\u5f3a
p2438
sVPYInitial
p2439
VFD
p2440
sVChatRoomId
p2441
I0
sVIsOwner
p2442
I0
sVHideInputBarFlag
p2443
I0
sVEncryChatRoomId
p2444
g44
sVAttrStatus
p2445
I102501
sVSnsFlag
p2446
I1
sVMemberCount
p2447
I0
sVOwnerUin
p2448
I0
sVAlias
p2449
g44
sVSignature
p2450
g44
sVContactFlag
p2451
I1
sVNickName
p2452
V\u623f\u4e1c
p2453
sVRemarkPYQuanPin
p2454
Vxuzhiqiang
p2455
sVHeadImgUrl
p2456
V/cgi-bin/mmwebwx-bin/webwxgeticon?seq=681277735&username=@76ae56c3172f05e1db3217d76f567990b5c597c1611e35114953dd377ebed0e0&skey=@crypt_c4463405_3b7c724258920b3156a723070c0a22f1
p2457
sVSex
p2458
I1
sVStarFriend
p2459
I0
sVStatues
p2460
I0
sa(dp2461
VUserName
p2462
V@e27114dde2862246b7f6856d7872cead87dba7282f692ec2f73732181efebba6
p2463
sVCity
p2464
V\u54c8\u5c14\u6ee8
p2465
sVDisplayName
p2466
g44
sVUniFriend
p2467
I0
sVMemberList
p2468
(lp2469
sVPYQuanPin
p2470
V52Hertz
p2471
sVRemarkPYInitial
p2472
VLJH
p2473
sVUin
p2474
I0
sVAppAccountFlag
p2475
I0
sVVerifyFlag
p2476
I0
sVProvince
p2477
V\u9ed1\u9f99\u6c5f
p2478
sVKeyWord
p2479
g44
sVRemarkName
p2480
V\u5218\u91d1\u6656
p2481
sVPYInitial
p2482
V52HERTZ
p2483
sVChatRoomId
p2484
I0
sVIsOwner
p2485
I0
sVHideInputBarFlag
p2486
I0
sVEncryChatRoomId
p2487
g44
sVAttrStatus
p2488
I4197
sVSnsFlag
p2489
I1
sVMemberCount
p2490
I0
sVOwnerUin
p2491
I0
sVAlias
p2492
g44
sVSignature
p2493
V\u2026
p2494
sVContactFlag
p2495
I1
sVNickName
p2496
V52Hertz
p2497
sVRemarkPYQuanPin
p2498
Vliujinhui
p2499
sVHeadImgUrl
p2500
V/cgi-bin/mmwebwx-bin/webwxgeticon?seq=681327233&username=@e27114dde2862246b7f6856d7872cead87dba7282f692ec2f73732181efebba6&skey=@crypt_c4463405_3b7c724258920b3156a723070c0a22f1
p2501
sVSex
p2502
I1
sVStarFriend
p2503
I0
sVStatues
p2504
I0
sa(dp2505
VUserName
p2506
V@e137b394ee3cf6f846596e47faac2e040f8a0caee8cc13349826f705469f113e
p2507
sVCity
p2508
V\u7ee5\u5316
p2509
sVDisplayName
p2510
g44
sVUniFriend
p2511
I0
sVMemberList
p2512
(lp2513
sVPYQuanPin
p2514
Vtongguang
p2515
sVRemarkPYInitial
p2516
VYH
p2517
sVUin
p2518
I0
sVAppAccountFlag
p2519
I0
sVVerifyFlag
p2520
I0
sVProvince
p2521
V\u9ed1\u9f99\u6c5f
p2522
sVKeyWord
p2523
g44
sVRemarkName
p2524
V\u4e8e\u6b22
p2525
sVPYInitial
p2526
VTG
p2527
sVChatRoomId
p2528
I0
sVIsOwner
p2529
I0
sVHideInputBarFlag
p2530
I0
sVEncryChatRoomId
p2531
g44
sVAttrStatus
p2532
I102501
sVSnsFlag
p2533
I257
sVMemberCount
p2534
I0
sVOwnerUin
p2535
I0
sVAlias
p2536
g44
sVSignature
p2537
g44
sVContactFlag
p2538
I1
sVNickName
p2539
V\u77b3\u5149
p2540
sVRemarkPYQuanPin
p2541
Vyuhuan
p2542
sVHeadImgUrl
p2543
V/cgi-bin/mmwebwx-bin/webwxgeticon?seq=681327237&username=@e137b394ee3cf6f846596e47faac2e040f8a0caee8cc13349826f705469f113e&skey=@crypt_c4463405_3b7c724258920b3156a723070c0a22f1
p2544
sVSex
p2545
I2
sVStarFriend
p2546
I0
sVStatues
p2547
I0
sa(dp2548
VUserName
p2549
V@6e932efdd883809ece1ba0bc509ff2be829bd69460fb0c5dd6a1d0af08109ae4
p2550
sVCity
p2551
g44
sVDisplayName
p2552
g44
sVUniFriend
p2553
I0
sVMemberList
p2554
(lp2555
sVPYQuanPin
p2556
VmayejunDDD
p2557
sVRemarkPYInitial
p2558
VZC
p2559
sVUin
p2560
I0
sVAppAccountFlag
p2561
I0
sVVerifyFlag
p2562
I0
sVProvince
p2563
g44
sVKeyWord
p2564
g44
sVRemarkName
p2565
V\u5f20\u9a70
p2566
sVPYInitial
p2567
VMYJDDD
p2568
sVChatRoomId
p2569
I0
sVIsOwner
p2570
I0
sVHideInputBarFlag
p2571
I0
sVEncryChatRoomId
p2572
g44
sVAttrStatus
p2573
I33656933
sVSnsFlag
p2574
I1
sVMemberCount
p2575
I0
sVOwnerUin
p2576
I0
sVAlias
p2577
g44
sVSignature
p2578
g44
sVContactFlag
p2579
I1
sVNickName
p2580
V\u9a6c\u4e5f\u541bDDD
p2581
sVRemarkPYQuanPin
p2582
Vzhangchi
p2583
sVHeadImgUrl
p2584
V/cgi-bin/mmwebwx-bin/webwxgeticon?seq=681327238&username=@6e932efdd883809ece1ba0bc509ff2be829bd69460fb0c5dd6a1d0af08109ae4&skey=@crypt_c4463405_3b7c724258920b3156a723070c0a22f1
p2585
sVSex
p2586
I1
sVStarFriend
p2587
I0
sVStatues
p2588
I0
sa(dp2589
VUserName
p2590
V@41926ee0b3197924ccee6efd1aaa0fd5d7129d044c9cb1f332b71080290363db
p2591
sVCity
p2592
g44
sVDisplayName
p2593
g44
sVUniFriend
p2594
I0
sVMemberList
p2595
(lp2596
sVPYQuanPin
p2597
VCyk
p2598
sVRemarkPYInitial
p2599
VCYK
p2600
sVUin
p2601
I0
sVAppAccountFlag
p2602
I0
sVVerifyFlag
p2603
I0
sVProvince
p2604
V\u6e56\u5317
p2605
sVKeyWord
p2606
g44
sVRemarkName
p2607
V\u5d14\u8fdc\u5eb7
p2608
sVPYInitial
p2609
VCYK
p2610
sVChatRoomId
p2611
I0
sVIsOwner
p2612
I0
sVHideInputBarFlag
p2613
I0
sVEncryChatRoomId
p2614
g44
sVAttrStatus
p2615
I33656933
sVSnsFlag
p2616
I257
sVMemberCount
p2617
I0
sVOwnerUin
p2618
I0
sVAlias
p2619
g44
sVSignature
p2620
V<span class="emoji emoji1f612"></span>
p2621
sVContactFlag
p2622
I1
sVNickName
p2623
VCyk
p2624
sVRemarkPYQuanPin
p2625
Vcuiyuankang
p2626
sVHeadImgUrl
p2627
V/cgi-bin/mmwebwx-bin/webwxgeticon?seq=681327241&username=@41926ee0b3197924ccee6efd1aaa0fd5d7129d044c9cb1f332b71080290363db&skey=@crypt_c4463405_3b7c724258920b3156a723070c0a22f1
p2628
sVSex
p2629
I1
sVStarFriend
p2630
I0
sVStatues
p2631
I0
sa(dp2632
VUserName
p2633
V@9bc0fffd18f245b6b8af17396fcb705195822df53f897ddda670ccb2849b4a39
p2634
sVCity
p2635
V\u54c8\u5c14\u6ee8
p2636
sVDisplayName
p2637
g44
sVUniFriend
p2638
I0
sVMemberList
p2639
(lp2640
sVPYQuanPin
p2641
Vlunhui
p2642
sVRemarkPYInitial
p2643
VCJP
p2644
sVUin
p2645
I0
sVAppAccountFlag
p2646
I0
sVVerifyFlag
p2647
I0
sVProvince
p2648
V\u9ed1\u9f99\u6c5f
p2649
sVKeyWord
p2650
g44
sVRemarkName
p2651
V\u9648\u7ee7\u9e4f
p2652
sVPYInitial
p2653
VLH
p2654
sVChatRoomId
p2655
I0
sVIsOwner
p2656
I0
sVHideInputBarFlag
p2657
I0
sVEncryChatRoomId
p2658
g44
sVAttrStatus
p2659
I135205
sVSnsFlag
p2660
I257
sVMemberCount
p2661
I0
sVOwnerUin
p2662
I0
sVAlias
p2663
g44
sVSignature
p2664
g44
sVContactFlag
p2665
I1
sVNickName
p2666
V\u8f6e\u56de
p2667
sVRemarkPYQuanPin
p2668
Vchenjipeng
p2669
sVHeadImgUrl
p2670
V/cgi-bin/mmwebwx-bin/webwxgeticon?seq=681267732&username=@9bc0fffd18f245b6b8af17396fcb705195822df53f897ddda670ccb2849b4a39&skey=@crypt_c4463405_3b7c724258920b3156a723070c0a22f1
p2671
sVSex
p2672
I1
sVStarFriend
p2673
I0
sVStatues
p2674
I0
sa(dp2675
VUserName
p2676
V@9a25704f1e29aef070d165fe9670e3bc552b33122920b6a3acf27dc30245ac2a
p2677
sVCity
p2678
g44
sVDisplayName
p2679
g44
sVUniFriend
p2680
I0
sVMemberList
p2681
(lp2682
sVPYQuanPin
p2683
VKelly
p2684
sVRemarkPYInitial
p2685
VDYX
p2686
sVUin
p2687
I0
sVAppAccountFlag
p2688
I0
sVVerifyFlag
p2689
I0
sVProvince
p2690
g44
sVKeyWord
p2691
g44
sVRemarkName
p2692
V\u675c\u96e8\u8f9b
p2693
sVPYInitial
p2694
VKELLY
p2695
sVChatRoomId
p2696
I0
sVIsOwner
p2697
I0
sVHideInputBarFlag
p2698
I0
sVEncryChatRoomId
p2699
g44
sVAttrStatus
p2700
I242725
sVSnsFlag
p2701
I17
sVMemberCount
p2702
I0
sVOwnerUin
p2703
I0
sVAlias
p2704
g44
sVSignature
p2705
V\u4e3a\u4eba\u5982\u6b64\u60ed\u6127,
p2706
sVContactFlag
p2707
I1
sVNickName
p2708
VKelly      -
p2709
sVRemarkPYQuanPin
p2710
Vduyuxin
p2711
sVHeadImgUrl
p2712
V/cgi-bin/mmwebwx-bin/webwxgeticon?seq=681327568&username=@9a25704f1e29aef070d165fe9670e3bc552b33122920b6a3acf27dc30245ac2a&skey=@crypt_c4463405_3b7c724258920b3156a723070c0a22f1
p2713
sVSex
p2714
I2
sVStarFriend
p2715
I0
sVStatues
p2716
I0
sa(dp2717
VUserName
p2718
V@b35115407662bc64739f8d1b4933f60bee1383b23e79988587d7f73ec2a25775
p2719
sVCity
p2720
g44
sVDisplayName
p2721
g44
sVUniFriend
p2722
I0
sVMemberList
p2723
(lp2724
sVPYQuanPin
p2725
Vbiubiu
p2726
sVRemarkPYInitial
p2727
VXWH
p2728
sVUin
p2729
I0
sVAppAccountFlag
p2730
I0
sVVerifyFlag
p2731
I0
sVProvince
p2732
VNovosibirsk
p2733
sVKeyWord
p2734
g44
sVRemarkName
p2735
V\u5f90\u6587\u8c6a
p2736
sVPYInitial
p2737
VBIUBIU
p2738
sVChatRoomId
p2739
I0
sVIsOwner
p2740
I0
sVHideInputBarFlag
p2741
I0
sVEncryChatRoomId
p2742
g44
sVAttrStatus
p2743
I135205
sVSnsFlag
p2744
I257
sVMemberCount
p2745
I0
sVOwnerUin
p2746
I0
sVAlias
p2747
g44
sVSignature
p2748
V\u6ca1\u6709\u4e0d\u5e26\u4f24\u7684\u4eba\u2014\u2014\u771f\u6b63\u80fd\u6cbb\u6108\u4f60\u7684\u53ea\u6709\u81ea\u5df1
p2749
sVContactFlag
p2750
I1
sVNickName
p2751
Vbiu~biu~
p2752
sVRemarkPYQuanPin
p2753
Vxuwenhao
p2754
sVHeadImgUrl
p2755
V/cgi-bin/mmwebwx-bin/webwxgeticon?seq=681323473&username=@b35115407662bc64739f8d1b4933f60bee1383b23e79988587d7f73ec2a25775&skey=@crypt_c4463405_3b7c724258920b3156a723070c0a22f1
p2756
sVSex
p2757
I1
sVStarFriend
p2758
I0
sVStatues
p2759
I0
sa(dp2760
VUserName
p2761
V@a9127155922fea8f2a56da30a7e46e47f1a7949e95bf1991bb2e4ede5e16a381
p2762
sVCity
p2763
g44
sVDisplayName
p2764
g44
sVUniFriend
p2765
I0
sVMemberList
p2766
(lp2767
sVPYQuanPin
p2768
Vhongsedehaimianbaobao
p2769
sVRemarkPYInitial
p2770
VZYT
p2771
sVUin
p2772
I0
sVAppAccountFlag
p2773
I0
sVVerifyFlag
p2774
I0
sVProvince
p2775
VVladivostok
p2776
sVKeyWord
p2777
g44
sVRemarkName
p2778
V\u5f20\u5b87\u5a77
p2779
sVPYInitial
p2780
VHSDHMBB
p2781
sVChatRoomId
p2782
I0
sVIsOwner
p2783
I0
sVHideInputBarFlag
p2784
I0
sVEncryChatRoomId
p2785
g44
sVAttrStatus
p2786
I33560677
sVSnsFlag
p2787
I1
sVMemberCount
p2788
I0
sVOwnerUin
p2789
I0
sVAlias
p2790
g44
sVSignature
p2791
g44
sVContactFlag
p2792
I1
sVNickName
p2793
V\u7ea2\u8272\u7684\u6d77\u7ef5\u5b9d\u5b9d
p2794
sVRemarkPYQuanPin
p2795
Vzhangyuting
p2796
sVHeadImgUrl
p2797
V/cgi-bin/mmwebwx-bin/webwxgeticon?seq=681328081&username=@a9127155922fea8f2a56da30a7e46e47f1a7949e95bf1991bb2e4ede5e16a381&skey=@crypt_c4463405_3b7c724258920b3156a723070c0a22f1
p2798
sVSex
p2799
I2
sVStarFriend
p2800
I0
sVStatues
p2801
I0
sa(dp2802
VUserName
p2803
V@18a2341417016df4cc3f3627f88d23d41d02da63b8f67fcfba4773e1409bfd90
p2804
sVCity
p2805
g44
sVDisplayName
p2806
g44
sVUniFriend
p2807
I0
sVMemberList
p2808
(lp2809
sVPYQuanPin
p2810
Vningmengbancux
p2811
sVRemarkPYInitial
p2812
VSXN
p2813
sVUin
p2814
I0
sVAppAccountFlag
p2815
I0
sVVerifyFlag
p2816
I0
sVProvince
p2817
g44
sVKeyWord
p2818
g44
sVRemarkName
p2819
V\u5b59\u96ea\u6960
p2820
sVPYInitial
p2821
VNMBCX
p2822
sVChatRoomId
p2823
I0
sVIsOwner
p2824
I0
sVHideInputBarFlag
p2825
I0
sVEncryChatRoomId
p2826
g44
sVAttrStatus
p2827
I145765
sVSnsFlag
p2828
I1
sVMemberCount
p2829
I0
sVOwnerUin
p2830
I0
sVAlias
p2831
g44
sVSignature
p2832
g44
sVContactFlag
p2833
I1
sVNickName
p2834
V\u67e0\u6aac\u62cc\u918bx
p2835
sVRemarkPYQuanPin
p2836
Vsunxuenan
p2837
sVHeadImgUrl
p2838
V/cgi-bin/mmwebwx-bin/webwxgeticon?seq=681328082&username=@18a2341417016df4cc3f3627f88d23d41d02da63b8f67fcfba4773e1409bfd90&skey=@crypt_c4463405_3b7c724258920b3156a723070c0a22f1
p2839
sVSex
p2840
I2
sVStarFriend
p2841
I0
sVStatues
p2842
I0
sa(dp2843
VUserName
p2844
V@62a40170c5041cb99415da0b35d5478947d1fe02a8bd3b1a5bb1dcae46da962c
p2845
sVCity
p2846
V\u5927\u5e86
p2847
sVDisplayName
p2848
g44
sVUniFriend
p2849
I0
sVMemberList
p2850
(lp2851
sVPYQuanPin
p2852
Vyiyue
p2853
sVRemarkPYInitial
p2854
VZYL
p2855
sVUin
p2856
I0
sVAppAccountFlag
p2857
I0
sVVerifyFlag
p2858
I0
sVProvince
p2859
V\u9ed1\u9f99\u6c5f
p2860
sVKeyWord
p2861
g44
sVRemarkName
p2862
V\u5f20\u5f66\u9f99
p2863
sVPYInitial
p2864
VYY
p2865
sVChatRoomId
p2866
I0
sVIsOwner
p2867
I0
sVHideInputBarFlag
p2868
I0
sVEncryChatRoomId
p2869
g44
sVAttrStatus
p2870
I102501
sVSnsFlag
p2871
I257
sVMemberCount
p2872
I0
sVOwnerUin
p2873
I0
sVAlias
p2874
g44
sVSignature
p2875
g44
sVContactFlag
p2876
I1
sVNickName
p2877
V\u4e00\u4e50
p2878
sVRemarkPYQuanPin
p2879
Vzhangyanlong
p2880
sVHeadImgUrl
p2881
V/cgi-bin/mmwebwx-bin/webwxgeticon?seq=662655638&username=@62a40170c5041cb99415da0b35d5478947d1fe02a8bd3b1a5bb1dcae46da962c&skey=@crypt_c4463405_3b7c724258920b3156a723070c0a22f1
p2882
sVSex
p2883
I1
sVStarFriend
p2884
I0
sVStatues
p2885
I0
sa(dp2886
VUserName
p2887
V@8fb0236d221277a301bf7ba6bc4135254d6c7c27c15f509284cdfca7a4f5f4c5
p2888
sVCity
p2889
V\u6b66\u6c49
p2890
sVDisplayName
p2891
g44
sVUniFriend
p2892
I0
sVMemberList
p2893
(lp2894
sVPYQuanPin
p2895
g44
sVRemarkPYInitial
p2896
VZQ
p2897
sVUin
p2898
I0
sVAppAccountFlag
p2899
I0
sVVerifyFlag
p2900
I0
sVProvince
p2901
V\u6e56\u5317
p2902
sVKeyWord
p2903
g44
sVRemarkName
p2904
V\u90d1\u7434
p2905
sVPYInitial
p2906
g44
sVChatRoomId
p2907
I0
sVIsOwner
p2908
I0
sVHideInputBarFlag
p2909
I0
sVEncryChatRoomId
p2910
g44
sVAttrStatus
p2911
I4221
sVSnsFlag
p2912
I257
sVMemberCount
p2913
I0
sVOwnerUin
p2914
I0
sVAlias
p2915
g44
sVSignature
p2916
g44
sVContactFlag
p2917
I1
sVNickName
p2918
V\u3002
p2919
sVRemarkPYQuanPin
p2920
Vzhengqin
p2921
sVHeadImgUrl
p2922
V/cgi-bin/mmwebwx-bin/webwxgeticon?seq=708766892&username=@8fb0236d221277a301bf7ba6bc4135254d6c7c27c15f509284cdfca7a4f5f4c5&skey=@crypt_c4463405_3b7c724258920b3156a723070c0a22f1
p2923
sVSex
p2924
I2
sVStarFriend
p2925
I0
sVStatues
p2926
I0
sa(dp2927
VUserName
p2928
V@8ceb0adbb5b01f0057f3358b4d46b392093df9977f33a772aaae4cd404dde18e
p2929
sVCity
p2930
V\u54c8\u5c14\u6ee8
p2931
sVDisplayName
p2932
g44
sVUniFriend
p2933
I0
sVMemberList
p2934
(lp2935
sVPYQuanPin
p2936
V?????
p2937
sVRemarkPYInitial
p2938
VOYRH
p2939
sVUin
p2940
I0
sVAppAccountFlag
p2941
I0
sVVerifyFlag
p2942
I0
sVProvince
p2943
V\u9ed1\u9f99\u6c5f
p2944
sVKeyWord
p2945
Vouy
p2946
sVRemarkName
p2947
V\u6b27\u9633\u745e\u5b8f
p2948
sVPYInitial
p2949
V?????
p2950
sVChatRoomId
p2951
I0
sVIsOwner
p2952
I0
sVHideInputBarFlag
p2953
I0
sVEncryChatRoomId
p2954
g44
sVAttrStatus
p2955
I242303
sVSnsFlag
p2956
I17
sVMemberCount
p2957
I0
sVOwnerUin
p2958
I0
sVAlias
p2959
g44
sVSignature
p2960
g44
sVContactFlag
p2961
I1
sVNickName
p2962
V\U0001f315\U0001f316\U0001f317\U0001f318\U0001f311
p2963
sVRemarkPYQuanPin
p2964
Vouyangruihong
p2965
sVHeadImgUrl
p2966
V/cgi-bin/mmwebwx-bin/webwxgeticon?seq=681308280&username=@8ceb0adbb5b01f0057f3358b4d46b392093df9977f33a772aaae4cd404dde18e&skey=@crypt_c4463405_3b7c724258920b3156a723070c0a22f1
p2967
sVSex
p2968
I1
sVStarFriend
p2969
I0
sVStatues
p2970
I0
sa(dp2971
VUserName
p2972
V@fc0c701d94fe4d0ac9b85c482d5614b7443b2ffd0ce179573cc07b5f766756b5
p2973
sVCity
p2974
V\u5927\u5e86
p2975
sVDisplayName
p2976
g44
sVUniFriend
p2977
I0
sVMemberList
p2978
(lp2979
sVPYQuanPin
p2980
Vwochaoaixuexi
p2981
sVRemarkPYInitial
p2982
VXZC
p2983
sVUin
p2984
I0
sVAppAccountFlag
p2985
I0
sVVerifyFlag
p2986
I0
sVProvince
p2987
V\u9ed1\u9f99\u6c5f
p2988
sVKeyWord
p2989
g44
sVRemarkName
p2990
V\u5f90\u5fd7\u8d85
p2991
sVPYInitial
p2992
VWCAXX
p2993
sVChatRoomId
p2994
I0
sVIsOwner
p2995
I0
sVHideInputBarFlag
p2996
I0
sVEncryChatRoomId
p2997
g44
sVAttrStatus
p2998
I104549
sVSnsFlag
p2999
I385
sVMemberCount
p3000
I0
sVOwnerUin
p3001
I0
sVAlias
p3002
g44
sVSignature
p3003
V\u60f3\u627e\u5230\u81ea\u5df1\u7684key
p3004
sVContactFlag
p3005
I1
sVNickName
p3006
V\u6211\u8d85\u7231\u5b66\u4e60
p3007
sVRemarkPYQuanPin
p3008
Vxuzhichao
p3009
sVHeadImgUrl
p3010
V/cgi-bin/mmwebwx-bin/webwxgeticon?seq=708767252&username=@fc0c701d94fe4d0ac9b85c482d5614b7443b2ffd0ce179573cc07b5f766756b5&skey=@crypt_c4463405_3b7c724258920b3156a723070c0a22f1
p3011
sVSex
p3012
I1
sVStarFriend
p3013
I0
sVStatues
p3014
I0
sa(dp3015
VUserName
p3016
V@f8e526c1aa072006af76b231b206f73b2ec637203d2a4d03799261a456a79c5d
p3017
sVCity
p3018
g44
sVDisplayName
p3019
g44
sVUniFriend
p3020
I0
sVMemberList
p3021
(lp3022
sVPYQuanPin
p3023
Vcanrechenxi
p3024
sVRemarkPYInitial
p3025
VZYX
p3026
sVUin
p3027
I0
sVAppAccountFlag
p3028
I0
sVVerifyFlag
p3029
I0
sVProvince
p3030
g44
sVKeyWord
p3031
g44
sVRemarkName
p3032
V\u5468\u5b87\u8f69
p3033
sVPYInitial
p3034
VCRCX
p3035
sVChatRoomId
p3036
I0
sVIsOwner
p3037
I0
sVHideInputBarFlag
p3038
I0
sVEncryChatRoomId
p3039
g44
sVAttrStatus
p3040
I102589
sVSnsFlag
p3041
I257
sVMemberCount
p3042
I0
sVOwnerUin
p3043
I0
sVAlias
p3044
g44
sVSignature
p3045
g44
sVContactFlag
p3046
I1
sVNickName
p3047
V\u707f\u82e5\u6668\u66e6
p3048
sVRemarkPYQuanPin
p3049
Vzhouyuxuan
p3050
sVHeadImgUrl
p3051
V/cgi-bin/mmwebwx-bin/webwxgeticon?seq=708767353&username=@f8e526c1aa072006af76b231b206f73b2ec637203d2a4d03799261a456a79c5d&skey=@crypt_c4463405_3b7c724258920b3156a723070c0a22f1
p3052
sVSex
p3053
I1
sVStarFriend
p3054
I0
sVStatues
p3055
I0
sa(dp3056
VUserName
p3057
V@b8527758b101a796fed8030184c1a8a479ab62035db5b85c0b030e8b3f04dc3e
p3058
sVCity
p3059
V\u5e7f\u5dde
p3060
sVDisplayName
p3061
g44
sVUniFriend
p3062
I0
sVMemberList
p3063
(lp3064
sVPYQuanPin
p3065
Vcrystal
p3066
sVRemarkPYInitial
p3067
VSAY
p3068
sVUin
p3069
I0
sVAppAccountFlag
p3070
I0
sVVerifyFlag
p3071
I0
sVProvince
p3072
V\u5e7f\u4e1c
p3073
sVKeyWord
p3074
g44
sVRemarkName
p3075
V\u8212\u5965\u6021
p3076
sVPYInitial
p3077
VCRYSTAL
p3078
sVChatRoomId
p3079
I0
sVIsOwner
p3080
I0
sVHideInputBarFlag
p3081
I0
sVEncryChatRoomId
p3082
g44
sVAttrStatus
p3083
I33656869
sVSnsFlag
p3084
I257
sVMemberCount
p3085
I0
sVOwnerUin
p3086
I0
sVAlias
p3087
g44
sVSignature
p3088
V\u62c9\u8428\u997f\u4e86\u53bb
p3089
sVContactFlag
p3090
I1
sVNickName
p3091
Vcrystal
p3092
sVRemarkPYQuanPin
p3093
Vshuaoyi
p3094
sVHeadImgUrl
p3095
V/cgi-bin/mmwebwx-bin/webwxgeticon?seq=708767358&username=@b8527758b101a796fed8030184c1a8a479ab62035db5b85c0b030e8b3f04dc3e&skey=@crypt_c4463405_3b7c724258920b3156a723070c0a22f1
p3096
sVSex
p3097
I2
sVStarFriend
p3098
I0
sVStatues
p3099
I0
sa(dp3100
VUserName
p3101
V@f559166bbfcb85e53c61aee7e92d1c2976cb2c20adac2f67fec855ff456581dd
p3102
sVCity
p3103
VSan Francisco
p3104
sVDisplayName
p3105
g44
sVUniFriend
p3106
I0
sVMemberList
p3107
(lp3108
sVPYQuanPin
p3109
VAyo
p3110
sVRemarkPYInitial
p3111
g44
sVUin
p3112
I0
sVAppAccountFlag
p3113
I0
sVVerifyFlag
p3114
I0
sVProvince
p3115
VCalifornia
p3116
sVKeyWord
p3117
g44
sVRemarkName
p3118
g44
sVPYInitial
p3119
VAYO
p3120
sVChatRoomId
p3121
I0
sVIsOwner
p3122
I0
sVHideInputBarFlag
p3123
I0
sVEncryChatRoomId
p3124
g44
sVAttrStatus
p3125
I135205
sVSnsFlag
p3126
I0
sVMemberCount
p3127
I0
sVOwnerUin
p3128
I0
sVAlias
p3129
g44
sVSignature
p3130
g44
sVContactFlag
p3131
I1
sVNickName
p3132
VAyo
p3133
sVRemarkPYQuanPin
p3134
g44
sVHeadImgUrl
p3135
V/cgi-bin/mmwebwx-bin/webwxgeticon?seq=681257495&username=@f559166bbfcb85e53c61aee7e92d1c2976cb2c20adac2f67fec855ff456581dd&skey=@crypt_c4463405_3b7c724258920b3156a723070c0a22f1
p3136
sVSex
p3137
I1
sVStarFriend
p3138
I0
sVStatues
p3139
I0
sa(dp3140
VUserName
p3141
V@f29fa6d38f09b19e2a5c354177512ea085a343024e2d5b246a6f6851d57cbcc3
p3142
sVCity
p3143
V\u4f73\u6728\u65af
p3144
sVDisplayName
p3145
g44
sVUniFriend
p3146
I0
sVMemberList
p3147
(lp3148
sVPYQuanPin
p3149
Vliusaihanspanclassemojiemoji1f340span
p3150
sVRemarkPYInitial
p3151
VLSH
p3152
sVUin
p3153
I0
sVAppAccountFlag
p3154
I0
sVVerifyFlag
p3155
I0
sVProvince
p3156
V\u9ed1\u9f99\u6c5f
p3157
sVKeyWord
p3158
g44
sVRemarkName
p3159
V\u5218\u601d\u6db5
p3160
sVPYInitial
p3161
VLSHSPANCLASSEMOJIEMOJI1F340SPAN
p3162
sVChatRoomId
p3163
I0
sVIsOwner
p3164
I0
sVHideInputBarFlag
p3165
I0
sVEncryChatRoomId
p3166
g44
sVAttrStatus
p3167
I102437
sVSnsFlag
p3168
I257
sVMemberCount
p3169
I0
sVOwnerUin
p3170
I0
sVAlias
p3171
g44
sVSignature
p3172
V\u5fc3\u6709\u6240\u671f \u5168\u529b\u4ee5\u8d74
p3173
sVContactFlag
p3174
I1
sVNickName
p3175
V\u5218\u601d\u6db5\U0001f340
p3176
sVRemarkPYQuanPin
p3177
Vliusaihan
p3178
sVHeadImgUrl
p3179
V/cgi-bin/mmwebwx-bin/webwxgeticon?seq=708767589&username=@f29fa6d38f09b19e2a5c354177512ea085a343024e2d5b246a6f6851d57cbcc3&skey=@crypt_c4463405_3b7c724258920b3156a723070c0a22f1
p3180
sVSex
p3181
I2
sVStarFriend
p3182
I0
sVStatues
p3183
I0
sa(dp3184
VUserName
p3185
V@c41b66cf9f1799ffbf00cdf0ad21081e7fd72e5c81dfa4458646e46578f22428
p3186
sVCity
p3187
g44
sVDisplayName
p3188
g44
sVUniFriend
p3189
I0
sVMemberList
p3190
(lp3191
sVPYQuanPin
p3192
Vnixiangdubiexiang
p3193
sVRemarkPYInitial
p3194
VDYX
p3195
sVUin
p3196
I0
sVAppAccountFlag
p3197
I0
sVVerifyFlag
p3198
I0
sVProvince
p3199
g44
sVKeyWord
p3200
g44
sVRemarkName
p3201
V\u675c\u9896\u99a8
p3202
sVPYInitial
p3203
VNXDBX
p3204
sVChatRoomId
p3205
I0
sVIsOwner
p3206
I0
sVHideInputBarFlag
p3207
I0
sVEncryChatRoomId
p3208
g44
sVAttrStatus
p3209
I4197
sVSnsFlag
p3210
I1
sVMemberCount
p3211
I0
sVOwnerUin
p3212
I0
sVAlias
p3213
g44
sVSignature
p3214
g44
sVContactFlag
p3215
I1
sVNickName
p3216
V\u4f60\u60f3\u90fd\u522b\u60f3
p3217
sVRemarkPYQuanPin
p3218
Vduyingxin
p3219
sVHeadImgUrl
p3220
V/cgi-bin/mmwebwx-bin/webwxgeticon?seq=708767616&username=@c41b66cf9f1799ffbf00cdf0ad21081e7fd72e5c81dfa4458646e46578f22428&skey=@crypt_c4463405_3b7c724258920b3156a723070c0a22f1
p3221
sVSex
p3222
I2
sVStarFriend
p3223
I0
sVStatues
p3224
I0
sa(dp3225
VUserName
p3226
V@f921025cc6f9b29e9e8a1cc16403722a415d1fb20f490f833ac4715ce62565a7
p3227
sVCity
p3228
V\u9e64\u5c97
p3229
sVDisplayName
p3230
g44
sVUniFriend
p3231
I0
sVMemberList
p3232
(lp3233
sVPYQuanPin
p3234
g44
sVRemarkPYInitial
p3235
VWS
p3236
sVUin
p3237
I0
sVAppAccountFlag
p3238
I0
sVVerifyFlag
p3239
I0
sVProvince
p3240
V\u9ed1\u9f99\u6c5f
p3241
sVKeyWord
p3242
g44
sVRemarkName
p3243
V\u738b\u5e05
p3244
sVPYInitial
p3245
g44
sVChatRoomId
p3246
I0
sVIsOwner
p3247
I0
sVHideInputBarFlag
p3248
I0
sVEncryChatRoomId
p3249
g44
sVAttrStatus
p3250
I233509
sVSnsFlag
p3251
I257
sVMemberCount
p3252
I0
sVOwnerUin
p3253
I0
sVAlias
p3254
g44
sVSignature
p3255
g44
sVContactFlag
p3256
I1
sVNickName
p3257
V~
p3258
sVRemarkPYQuanPin
p3259
Vwangshuai
p3260
sVHeadImgUrl
p3261
V/cgi-bin/mmwebwx-bin/webwxgeticon?seq=681297340&username=@f921025cc6f9b29e9e8a1cc16403722a415d1fb20f490f833ac4715ce62565a7&skey=@crypt_c4463405_3b7c724258920b3156a723070c0a22f1
p3262
sVSex
p3263
I1
sVStarFriend
p3264
I0
sVStatues
p3265
I0
sa(dp3266
VUserName
p3267
V@4a3907e360858a2ac43e2ced89ee9acccbc438a0b37dbc4036a390e5fe8f7802
p3268
sVCity
p3269
g44
sVDisplayName
p3270
g44
sVUniFriend
p3271
I0
sVMemberList
p3272
(lp3273
sVPYQuanPin
p3274
Vaoliao
p3275
sVRemarkPYInitial
p3276
VHA
p3277
sVUin
p3278
I0
sVAppAccountFlag
p3279
I0
sVVerifyFlag
p3280
I0
sVProvince
p3281
g44
sVKeyWord
p3282
g44
sVRemarkName
p3283
V\u9ec4\u6fb3
p3284
sVPYInitial
p3285
VALA
p3286
sVChatRoomId
p3287
I0
sVIsOwner
p3288
I0
sVHideInputBarFlag
p3289
I0
sVEncryChatRoomId
p3290
g44
sVAttrStatus
p3291
I135269
sVSnsFlag
p3292
I257
sVMemberCount
p3293
I0
sVOwnerUin
p3294
I0
sVAlias
p3295
g44
sVSignature
p3296
g44
sVContactFlag
p3297
I1
sVNickName
p3298
V\u5965\u5229\u5965
p3299
sVRemarkPYQuanPin
p3300
Vhuangao
p3301
sVHeadImgUrl
p3302
V/cgi-bin/mmwebwx-bin/webwxgeticon?seq=708767810&username=@4a3907e360858a2ac43e2ced89ee9acccbc438a0b37dbc4036a390e5fe8f7802&skey=@crypt_c4463405_3b7c724258920b3156a723070c0a22f1
p3303
sVSex
p3304
I1
sVStarFriend
p3305
I0
sVStatues
p3306
I0
sa(dp3307
VUserName
p3308
V@95ef3ad05eb2c80fba8c3414f17066fc13df47653c2393be1e140d9bbfdfe603
p3309
sVCity
p3310
V\u6e29\u5dde
p3311
sVDisplayName
p3312
g44
sVUniFriend
p3313
I0
sVMemberList
p3314
(lp3315
sVPYQuanPin
p3316
Vshandawang
p3317
sVRemarkPYInitial
p3318
VFFY
p3319
sVUin
p3320
I0
sVAppAccountFlag
p3321
I0
sVVerifyFlag
p3322
I0
sVProvince
p3323
V\u6d59\u6c5f
p3324
sVKeyWord
p3325
g44
sVRemarkName
p3326
V\u5085\u65b9\u5b87
p3327
sVPYInitial
p3328
VSDW
p3329
sVChatRoomId
p3330
I0
sVIsOwner
p3331
I0
sVContactType
p3332
I0
sVHideInputBarFlag
p3333
I0
sVEncryChatRoomId
p3334
g44
sVAttrStatus
p3335
I102885
sVSnsFlag
p3336
I1
sVMemberCount
p3337
I0
sVOwnerUin
p3338
I0
sVAlias
p3339
g44
sVSignature
p3340
VYalla Yalla
p3341
sVContactFlag
p3342
I1
sVNickName
p3343
V\u5c71\u5927\u738b
p3344
sVChatRoomOwner
p3345
g44
sVRemarkPYQuanPin
p3346
Vfufangyu
p3347
sVHeadImgUrl
p3348
V/cgi-bin/mmwebwx-bin/webwxgeticon?seq=681322996&username=@95ef3ad05eb2c80fba8c3414f17066fc13df47653c2393be1e140d9bbfdfe603&skey=@crypt_c4463405_3b7c724258920b3156a723070c0a22f1
p3349
sVSex
p3350
I1
sVStarFriend
p3351
I0
sVStatues
p3352
I0
sVHeadImgUpdateFlag
p3353
I1
sa(dp3354
VUserName
p3355
V@52c3981a2382a57c424202c07ff2ae37f07e6098c39cbcc4699492225b8225bc
p3356
sVCity
p3357
V\u6f2f\u6cb3
p3358
sVDisplayName
p3359
g44
sVUniFriend
p3360
I0
sVMemberList
p3361
(lp3362
sVPYQuanPin
p3363
Vyeah
p3364
sVRemarkPYInitial
p3365
VTY
p3366
sVUin
p3367
I0
sVAppAccountFlag
p3368
I0
sVVerifyFlag
p3369
I0
sVProvince
p3370
V\u6cb3\u5357
p3371
sVKeyWord
p3372
g44
sVRemarkName
p3373
V\u7530\u827a
p3374
sVPYInitial
p3375
VYEAH
p3376
sVChatRoomId
p3377
I0
sVIsOwner
p3378
I0
sVHideInputBarFlag
p3379
I0
sVEncryChatRoomId
p3380
g44
sVAttrStatus
p3381
I102589
sVSnsFlag
p3382
I1
sVMemberCount
p3383
I0
sVOwnerUin
p3384
I0
sVAlias
p3385
g44
sVSignature
p3386
g44
sVContactFlag
p3387
I1
sVNickName
p3388
Vyeah
p3389
sVRemarkPYQuanPin
p3390
Vtianyi
p3391
sVHeadImgUrl
p3392
V/cgi-bin/mmwebwx-bin/webwxgeticon?seq=681327097&username=@52c3981a2382a57c424202c07ff2ae37f07e6098c39cbcc4699492225b8225bc&skey=@crypt_c4463405_3b7c724258920b3156a723070c0a22f1
p3393
sVSex
p3394
I2
sVStarFriend
p3395
I0
sVStatues
p3396
I0
sa(dp3397
VUserName
p3398
V@ca26d73201ef859c0a7f00ff902642b35892b9250abaa24df18c68cc468ac0ff
p3399
sVCity
p3400
g44
sVDisplayName
p3401
g44
sVUniFriend
p3402
I0
sVMemberList
p3403
(lp3404
sVPYQuanPin
p3405
Vxiaowangshu
p3406
sVRemarkPYInitial
p3407
VZL
p3408
sVUin
p3409
I0
sVAppAccountFlag
p3410
I0
sVVerifyFlag
p3411
I0
sVProvince
p3412
g44
sVKeyWord
p3413
g44
sVRemarkName
p3414
V\u8d75\u96f7
p3415
sVPYInitial
p3416
VXWS
p3417
sVChatRoomId
p3418
I0
sVIsOwner
p3419
I0
sVHideInputBarFlag
p3420
I0
sVEncryChatRoomId
p3421
g44
sVAttrStatus
p3422
I103013
sVSnsFlag
p3423
I273
sVMemberCount
p3424
I0
sVOwnerUin
p3425
I0
sVAlias
p3426
g44
sVSignature
p3427
V\u6d6e\u5149\u63a0\u5f71
p3428
sVContactFlag
p3429
I1
sVNickName
p3430
V\u7b11\u5fd8\u4e66
p3431
sVRemarkPYQuanPin
p3432
Vzhaolei
p3433
sVHeadImgUrl
p3434
V/cgi-bin/mmwebwx-bin/webwxgeticon?seq=681321950&username=@ca26d73201ef859c0a7f00ff902642b35892b9250abaa24df18c68cc468ac0ff&skey=@crypt_c4463405_3b7c724258920b3156a723070c0a22f1
p3435
sVSex
p3436
I1
sVStarFriend
p3437
I0
sVStatues
p3438
I0
sa(dp3439
VUserName
p3440
V@8e68802905b804ed9619149283cab0fa3cd2b0541572be117856656b9f81a243
p3441
sVCity
p3442
g44
sVDisplayName
p3443
g44
sVUniFriend
p3444
I0
sVMemberList
p3445
(lp3446
sVPYQuanPin
p3447
Vee
p3448
sVRemarkPYInitial
p3449
VCXD
p3450
sVUin
p3451
I0
sVAppAccountFlag
p3452
I0
sVVerifyFlag
p3453
I0
sVProvince
p3454
g44
sVKeyWord
p3455
g44
sVRemarkName
p3456
V\u9648\u9521\u94ce
p3457
sVPYInitial
p3458
VEE
p3459
sVChatRoomId
p3460
I0
sVIsOwner
p3461
I0
sVHideInputBarFlag
p3462
I0
sVEncryChatRoomId
p3463
g44
sVAttrStatus
p3464
I6181
sVSnsFlag
p3465
I257
sVMemberCount
p3466
I0
sVOwnerUin
p3467
I0
sVAlias
p3468
g44
sVSignature
p3469
g44
sVContactFlag
p3470
I1
sVNickName
p3471
V\u5443\u5443
p3472
sVRemarkPYQuanPin
p3473
Vchenxiduo
p3474
sVHeadImgUrl
p3475
V/cgi-bin/mmwebwx-bin/webwxgeticon?seq=681319942&username=@8e68802905b804ed9619149283cab0fa3cd2b0541572be117856656b9f81a243&skey=@crypt_c4463405_3b7c724258920b3156a723070c0a22f1
p3476
sVSex
p3477
I1
sVStarFriend
p3478
I0
sVStatues
p3479
I0
sa(dp3480
VUserName
p3481
V@20006852eaab1baa36a8ab50c4c95456f7c20ff4b08ad576417c767e362f01fe
p3482
sVCity
p3483
g44
sVDisplayName
p3484
g44
sVUniFriend
p3485
I0
sVMemberList
p3486
(lp3487
sVPYQuanPin
p3488
VH
p3489
sVRemarkPYInitial
p3490
VHLH
p3491
sVUin
p3492
I0
sVAppAccountFlag
p3493
I0
sVVerifyFlag
p3494
I0
sVProvince
p3495
g44
sVKeyWord
p3496
g44
sVRemarkName
p3497
V\u80e1\u6797\u8c6a
p3498
sVPYInitial
p3499
g3489
sVChatRoomId
p3500
I0
sVIsOwner
p3501
I0
sVHideInputBarFlag
p3502
I0
sVEncryChatRoomId
p3503
g44
sVAttrStatus
p3504
I6245
sVSnsFlag
p3505
I1
sVMemberCount
p3506
I0
sVOwnerUin
p3507
I0
sVAlias
p3508
g44
sVSignature
p3509
g44
sVContactFlag
p3510
I1
sVNickName
p3511
g3489
sVRemarkPYQuanPin
p3512
Vhulinhao
p3513
sVHeadImgUrl
p3514
V/cgi-bin/mmwebwx-bin/webwxgeticon?seq=681263817&username=@20006852eaab1baa36a8ab50c4c95456f7c20ff4b08ad576417c767e362f01fe&skey=@crypt_c4463405_3b7c724258920b3156a723070c0a22f1
p3515
sVSex
p3516
I0
sVStarFriend
p3517
I0
sVStatues
p3518
I0
sa(dp3519
VUserName
p3520
V@81100be1ca929794fcada9d34b2e4f75bb733f0e44e05c0c3ad4a7167c5f75d2
p3521
sVCity
p3522
g44
sVDisplayName
p3523
g44
sVUniFriend
p3524
I0
sVMemberList
p3525
(lp3526
sVPYQuanPin
p3527
Vshiqi
p3528
sVRemarkPYInitial
p3529
VSQ
p3530
sVUin
p3531
I0
sVAppAccountFlag
p3532
I0
sVVerifyFlag
p3533
I0
sVProvince
p3534
g44
sVKeyWord
p3535
g44
sVRemarkName
p3536
V\u5e08\u742a
p3537
sVPYInitial
p3538
VSQ
p3539
sVChatRoomId
p3540
I0
sVIsOwner
p3541
I0
sVHideInputBarFlag
p3542
I0
sVEncryChatRoomId
p3543
g44
sVAttrStatus
p3544
I135205
sVSnsFlag
p3545
I257
sVMemberCount
p3546
I0
sVOwnerUin
p3547
I0
sVAlias
p3548
g44
sVSignature
p3549
V\u884c\u81f3\u671d\u96fe\u91cc,\u5760\u5165\u66ae\u4e91\u95f4
p3550
sVContactFlag
p3551
I1
sVNickName
p3552
V\u5341\u4e03
p3553
sVRemarkPYQuanPin
p3554
Vshiqi
p3555
sVHeadImgUrl
p3556
V/cgi-bin/mmwebwx-bin/webwxgeticon?seq=681326702&username=@81100be1ca929794fcada9d34b2e4f75bb733f0e44e05c0c3ad4a7167c5f75d2&skey=@crypt_c4463405_3b7c724258920b3156a723070c0a22f1
p3557
sVSex
p3558
I2
sVStarFriend
p3559
I0
sVStatues
p3560
I0
sa(dp3561
VUserName
p3562
V@217c6f90ba70138d32fec4f65eff6cc3fd37e731819dd521dc5ee57448ae5c3a
p3563
sVCity
p3564
V\u6210\u90fd
p3565
sVDisplayName
p3566
g44
sVUniFriend
p3567
I0
sVMemberList
p3568
(lp3569
sVPYQuanPin
p3570
VRyan
p3571
sVRemarkPYInitial
p3572
VLR
p3573
sVUin
p3574
I0
sVAppAccountFlag
p3575
I0
sVVerifyFlag
p3576
I0
sVProvince
p3577
V\u56db\u5ddd
p3578
sVKeyWord
p3579
g44
sVRemarkName
p3580
V\u5ed6\u745e
p3581
sVPYInitial
p3582
VRYAN
p3583
sVChatRoomId
p3584
I0
sVIsOwner
p3585
I0
sVHideInputBarFlag
p3586
I0
sVEncryChatRoomId
p3587
g44
sVAttrStatus
p3588
I236325
sVSnsFlag
p3589
I257
sVMemberCount
p3590
I0
sVOwnerUin
p3591
I0
sVAlias
p3592
g44
sVSignature
p3593
V\u6211\u5e0c\u671b\u4f60\u662f\u4e3a\u6211\u800c\u6765\u3002
p3594
sVContactFlag
p3595
I1
sVNickName
p3596
VRyan
p3597
sVRemarkPYQuanPin
p3598
Vliaorui
p3599
sVHeadImgUrl
p3600
V/cgi-bin/mmwebwx-bin/webwxgeticon?seq=708768119&username=@217c6f90ba70138d32fec4f65eff6cc3fd37e731819dd521dc5ee57448ae5c3a&skey=@crypt_c4463405_3b7c724258920b3156a723070c0a22f1
p3601
sVSex
p3602
I1
sVStarFriend
p3603
I0
sVStatues
p3604
I0
sa(dp3605
VUserName
p3606
V@88d2bfc67a8fa687ee247737b877effb0c09e2a5891fc9909108bd784ac42f0c
p3607
sVCity
p3608
V\u8861\u6c34
p3609
sVDisplayName
p3610
g44
sVUniFriend
p3611
I0
sVMemberList
p3612
(lp3613
sVPYQuanPin
p3614
Vlanwangwangdayang
p3615
sVRemarkPYInitial
p3616
VRBY
p3617
sVUin
p3618
I0
sVAppAccountFlag
p3619
I0
sVVerifyFlag
p3620
I0
sVProvince
p3621
V\u6cb3\u5317
p3622
sVKeyWord
p3623
g44
sVRemarkName
p3624
V\u4efb\u535a\u5b87
p3625
sVPYInitial
p3626
VLWWDY
p3627
sVChatRoomId
p3628
I0
sVIsOwner
p3629
I0
sVHideInputBarFlag
p3630
I0
sVEncryChatRoomId
p3631
g44
sVAttrStatus
p3632
I33558631
sVSnsFlag
p3633
I257
sVMemberCount
p3634
I0
sVOwnerUin
p3635
I0
sVAlias
p3636
g44
sVSignature
p3637
V\u4f60<span class="emoji emoji1f440"></span>\u4ec0\u4e48\u5462\uff1f\U0001f914 \u4f60<span class="emoji emoji1f440"></span>\u6211\uff1f\U0001f62f<span class="emoji emoji1f448"></span>\u597d\u554a \u90a3\u6211\u4e5f<span class="emoji emoji1f440"></span>\u4f60\u5462
p3638
sVContactFlag
p3639
I1
sVNickName
p3640
V\u61d2\u738b\u738b\u5927\u7f8a
p3641
sVRemarkPYQuanPin
p3642
Vrenboyu
p3643
sVHeadImgUrl
p3644
V/cgi-bin/mmwebwx-bin/webwxgeticon?seq=681327336&username=@88d2bfc67a8fa687ee247737b877effb0c09e2a5891fc9909108bd784ac42f0c&skey=@crypt_c4463405_3b7c724258920b3156a723070c0a22f1
p3645
sVSex
p3646
I1
sVStarFriend
p3647
I0
sVStatues
p3648
I0
sa(dp3649
VUserName
p3650
V@384ffe7bd90af4a0ea86cd2b6f7a93a8e0b98ecd5ef69933fad1fb4a27807364
p3651
sVCity
p3652
V\u4ed9\u6843
p3653
sVDisplayName
p3654
g44
sVUniFriend
p3655
I0
sVMemberList
p3656
(lp3657
sVPYQuanPin
p3658
Vtangtang
p3659
sVRemarkPYInitial
p3660
VXY
p3661
sVUin
p3662
I0
sVAppAccountFlag
p3663
I0
sVVerifyFlag
p3664
I0
sVProvince
p3665
V\u6e56\u5317
p3666
sVKeyWord
p3667
g44
sVRemarkName
p3668
V\u5c0f\u59e8
p3669
sVPYInitial
p3670
VTT
p3671
sVChatRoomId
p3672
I0
sVIsOwner
p3673
I0
sVHideInputBarFlag
p3674
I0
sVEncryChatRoomId
p3675
g44
sVAttrStatus
p3676
I135205
sVSnsFlag
p3677
I1
sVMemberCount
p3678
I0
sVOwnerUin
p3679
I0
sVAlias
p3680
g44
sVSignature
p3681
V\u6c64\u6c64
p3682
sVContactFlag
p3683
I1
sVNickName
p3684
V\u6c64\u6c64
p3685
sVRemarkPYQuanPin
p3686
Vxiaoyi
p3687
sVHeadImgUrl
p3688
V/cgi-bin/mmwebwx-bin/webwxgeticon?seq=662627563&username=@384ffe7bd90af4a0ea86cd2b6f7a93a8e0b98ecd5ef69933fad1fb4a27807364&skey=@crypt_c4463405_3b7c724258920b3156a723070c0a22f1
p3689
sVSex
p3690
I2
sVStarFriend
p3691
I0
sVStatues
p3692
I0
sa(dp3693
VUserName
p3694
V@b02f84976cb8b78d396ab731ae289b56
p3695
sVCity
p3696
g44
sVDisplayName
p3697
g44
sVUniFriend
p3698
I0
sVMemberList
p3699
(lp3700
sVPYQuanPin
p3701
Vshaomiamiaspanclassemojiemoji1f4a1span
p3702
sVRemarkPYInitial
p3703
VDY
p3704
sVUin
p3705
I0
sVAppAccountFlag
p3706
I0
sVVerifyFlag
p3707
I0
sVProvince
p3708
g44
sVKeyWord
p3709
Vmiy
p3710
sVRemarkName
p3711
V\u5bfc\u5458
p3712
sVPYInitial
p3713
VSMIAMIASPANCLASSEMOJIEMOJI1F4A1SPAN
p3714
sVChatRoomId
p3715
I0
sVIsOwner
p3716
I0
sVHideInputBarFlag
p3717
I0
sVEncryChatRoomId
p3718
g44
sVAttrStatus
p3719
I231463
sVSnsFlag
p3720
I305
sVMemberCount
p3721
I0
sVOwnerUin
p3722
I0
sVAlias
p3723
g44
sVSignature
p3724
V\u591a\u5403\u4e0d\u80d6\uff0c\u79ef\u6781\u5411\u4e0a
p3725
sVContactFlag
p3726
I1
sVNickName
p3727
V\u5c11miamia\U0001f4a1
p3728
sVRemarkPYQuanPin
p3729
Vdaoyuan
p3730
sVHeadImgUrl
p3731
V/cgi-bin/mmwebwx-bin/webwxgeticon?seq=681275329&username=@b02f84976cb8b78d396ab731ae289b56&skey=@crypt_c4463405_3b7c724258920b3156a723070c0a22f1
p3732
sVSex
p3733
I2
sVStarFriend
p3734
I0
sVStatues
p3735
I0
sa(dp3736
VUserName
p3737
V@aab8843a41596e526e0e77495f762cd5
p3738
sVCity
p3739
VLos Angeles
p3740
sVDisplayName
p3741
g44
sVUniFriend
p3742
I0
sVMemberList
p3743
(lp3744
sVPYQuanPin
p3745
g44
sVRemarkPYInitial
p3746
g44
sVUin
p3747
I0
sVAppAccountFlag
p3748
I0
sVVerifyFlag
p3749
I0
sVProvince
p3750
VCalifornia
p3751
sVKeyWord
p3752
Vliy
p3753
sVRemarkName
p3754
g44
sVPYInitial
p3755
g44
sVChatRoomId
p3756
I0
sVIsOwner
p3757
I0
sVHideInputBarFlag
p3758
I0
sVEncryChatRoomId
p3759
g44
sVAttrStatus
p3760
I104743
sVSnsFlag
p3761
I273
sVMemberCount
p3762
I0
sVOwnerUin
p3763
I0
sVAlias
p3764
g44
sVSignature
p3765
V\u7eb9\u8eab\u9884\u7ea6\u4ee5\u5b9a\u91d1\u4e3a\u51c6  \u4e0d\u63a5\u53d7\u53e3\u5934\u9884\u7ea6
p3766
sVContactFlag
p3767
I1
sVNickName
p3768
V.
p3769
sVRemarkPYQuanPin
p3770
g44
sVHeadImgUrl
p3771
V/cgi-bin/mmwebwx-bin/webwxgeticon?seq=681322322&username=@aab8843a41596e526e0e77495f762cd5&skey=@crypt_c4463405_3b7c724258920b3156a723070c0a22f1
p3772
sVSex
p3773
I1
sVStarFriend
p3774
I0
sVStatues
p3775
I0
sa(dp3776
VUserName
p3777
V@3f198feeb5ffdb9f259670cdef652c4ce73f7213eed942f2ab8748d1e004584a
p3778
sVCity
p3779
V\u6df1\u5733
p3780
sVDisplayName
p3781
g44
sVUniFriend
p3782
I0
sVMemberList
p3783
(lp3784
sVPYQuanPin
p3785
Vyizhibuhaokandeyu
p3786
sVRemarkPYInitial
p3787
VLXY
p3788
sVUin
p3789
I0
sVAppAccountFlag
p3790
I0
sVVerifyFlag
p3791
I0
sVProvince
p3792
V\u5e7f\u4e1c
p3793
sVKeyWord
p3794
g44
sVRemarkName
p3795
V\u674e\u6821\u5b87
p3796
sVPYInitial
p3797
VYZBHKDY
p3798
sVChatRoomId
p3799
I0
sVIsOwner
p3800
I0
sVHideInputBarFlag
p3801
I0
sVEncryChatRoomId
p3802
g44
sVAttrStatus
p3803
I33656933
sVSnsFlag
p3804
I1
sVMemberCount
p3805
I0
sVOwnerUin
p3806
I0
sVAlias
p3807
g44
sVSignature
p3808
g44
sVContactFlag
p3809
I1
sVNickName
p3810
V\u4e00\u53ea\u4e0d\u597d\u770b\u7684\u9b5a
p3811
sVRemarkPYQuanPin
p3812
Vlixiaoyu
p3813
sVHeadImgUrl
p3814
V/cgi-bin/mmwebwx-bin/webwxgeticon?seq=681309550&username=@3f198feeb5ffdb9f259670cdef652c4ce73f7213eed942f2ab8748d1e004584a&skey=@crypt_c4463405_3b7c724258920b3156a723070c0a22f1
p3815
sVSex
p3816
I1
sVStarFriend
p3817
I0
sVStatues
p3818
I0
sa(dp3819
VUserName
p3820
V@ee729c786897d30f9ed8c15f1d0d71fa7ad93142c8461fa131a88e68c946028e
p3821
sVCity
p3822
V\u54c8\u5c14\u6ee8
p3823
sVDisplayName
p3824
g44
sVUniFriend
p3825
I0
sVMemberList
p3826
(lp3827
sVPYQuanPin
p3828
Vhuaere
p3829
sVRemarkPYInitial
p3830
VLJH
p3831
sVUin
p3832
I0
sVAppAccountFlag
p3833
I0
sVVerifyFlag
p3834
I0
sVProvince
p3835
V\u9ed1\u9f99\u6c5f
p3836
sVKeyWord
p3837
g44
sVRemarkName
p3838
V\u674e\u4fca\u864e
p3839
sVPYInitial
p3840
VHEE
p3841
sVChatRoomId
p3842
I0
sVIsOwner
p3843
I0
sVHideInputBarFlag
p3844
I0
sVEncryChatRoomId
p3845
g44
sVAttrStatus
p3846
I33788541
sVSnsFlag
p3847
I17
sVMemberCount
p3848
I0
sVOwnerUin
p3849
I0
sVAlias
p3850
g44
sVSignature
p3851
V\u80fd\u542c\u5f97\u5230\u6211\u4e48\uff1f
p3852
sVContactFlag
p3853
I1
sVNickName
p3854
V\u82b1\u513f\u54e6
p3855
sVRemarkPYQuanPin
p3856
Vlijunhu
p3857
sVHeadImgUrl
p3858
V/cgi-bin/mmwebwx-bin/webwxgeticon?seq=681323689&username=@ee729c786897d30f9ed8c15f1d0d71fa7ad93142c8461fa131a88e68c946028e&skey=@crypt_c4463405_3b7c724258920b3156a723070c0a22f1
p3859
sVSex
p3860
I1
sVStarFriend
p3861
I0
sVStatues
p3862
I0
sa(dp3863
VUserName
p3864
V@8179f80ead139ec048c53050adcb853fde9f8a582b4871da2d5680df94bfb724
p3865
sVCity
p3866
V\u6b66\u6c49
p3867
sVDisplayName
p3868
g44
sVUniFriend
p3869
I0
sVMemberList
p3870
(lp3871
sVPYQuanPin
p3872
Vjianlegeyezhi
p3873
sVRemarkPYInitial
p3874
VYZ
p3875
sVUin
p3876
I0
sVAppAccountFlag
p3877
I0
sVVerifyFlag
p3878
I0
sVProvince
p3879
V\u6e56\u5317
p3880
sVKeyWord
p3881
g44
sVRemarkName
p3882
V\u53f6\u82b7
p3883
sVPYInitial
p3884
VJLGYZ
p3885
sVChatRoomId
p3886
I0
sVIsOwner
p3887
I0
sVHideInputBarFlag
p3888
I0
sVEncryChatRoomId
p3889
g44
sVAttrStatus
p3890
I102501
sVSnsFlag
p3891
I257
sVMemberCount
p3892
I0
sVOwnerUin
p3893
I0
sVAlias
p3894
g44
sVSignature
p3895
V\u63a5\u53d7\u6210\u957f\u4e5f\u63a5\u53d7\u6240\u6709\u805a\u6563.
p3896
sVContactFlag
p3897
I1
sVNickName
p3898
V\u6361\u4e86\u4e2a\u53f6\u82b7.
p3899
sVRemarkPYQuanPin
p3900
Vyezhi
p3901
sVHeadImgUrl
p3902
V/cgi-bin/mmwebwx-bin/webwxgeticon?seq=708768363&username=@8179f80ead139ec048c53050adcb853fde9f8a582b4871da2d5680df94bfb724&skey=@crypt_c4463405_3b7c724258920b3156a723070c0a22f1
p3903
sVSex
p3904
I2
sVStarFriend
p3905
I0
sVStatues
p3906
I0
sa(dp3907
VUserName
p3908
V@46ad0003286a4c61aae6409d220eb888bfcf14ecedb2fec682386cf7a6e9ea3b
p3909
sVCity
p3910
V\u54c8\u5c14\u6ee8
p3911
sVDisplayName
p3912
g44
sVUniFriend
p3913
I0
sVMemberList
p3914
(lp3915
sVPYQuanPin
p3916
Vzhaiyuchibupan
p3917
sVRemarkPYInitial
p3918
VZY
p3919
sVUin
p3920
I0
sVAppAccountFlag
p3921
I0
sVVerifyFlag
p3922
I0
sVProvince
p3923
V\u9ed1\u9f99\u6c5f
p3924
sVKeyWord
p3925
g44
sVRemarkName
p3926
V\u7fdf\u5b87
p3927
sVPYInitial
p3928
VZYCBP
p3929
sVChatRoomId
p3930
I0
sVIsOwner
p3931
I0
sVHideInputBarFlag
p3932
I0
sVEncryChatRoomId
p3933
g44
sVAttrStatus
p3934
I236415
sVSnsFlag
p3935
I1
sVMemberCount
p3936
I0
sVOwnerUin
p3937
I0
sVAlias
p3938
g44
sVSignature
p3939
V\u539f\u6765\u5e74\u5c11\u7eee\u68a6\uff0c\u90fd\u662f\u955c\u82b1\u6c34\u6708
p3940
sVContactFlag
p3941
I1
sVNickName
p3942
V\u7fdf\u5b87\u5403\u4e0d\u80d6
p3943
sVRemarkPYQuanPin
p3944
Vzhaiyu
p3945
sVHeadImgUrl
p3946
V/cgi-bin/mmwebwx-bin/webwxgeticon?seq=708768246&username=@46ad0003286a4c61aae6409d220eb888bfcf14ecedb2fec682386cf7a6e9ea3b&skey=@crypt_c4463405_3b7c724258920b3156a723070c0a22f1
p3947
sVSex
p3948
I1
sVStarFriend
p3949
I0
sVStatues
p3950
I0
sa(dp3951
VUserName
p3952
V@65b7bac96d88feb58ee2ad6e466fb547436f024ab43301feab7421175cd057be
p3953
sVCity
p3954
g44
sVDisplayName
p3955
g44
sVUniFriend
p3956
I0
sVMemberList
p3957
(lp3958
sVPYQuanPin
p3959
Vfeifei
p3960
sVRemarkPYInitial
p3961
VLWL
p3962
sVUin
p3963
I0
sVAppAccountFlag
p3964
I0
sVVerifyFlag
p3965
I0
sVProvince
p3966
g44
sVKeyWord
p3967
g44
sVRemarkName
p3968
V\u5ed6\u536b\u73b2
p3969
sVPYInitial
p3970
VFF
p3971
sVChatRoomId
p3972
I0
sVIsOwner
p3973
I0
sVHideInputBarFlag
p3974
I0
sVEncryChatRoomId
p3975
g44
sVAttrStatus
p3976
I102437
sVSnsFlag
p3977
I257
sVMemberCount
p3978
I0
sVOwnerUin
p3979
I0
sVAlias
p3980
g44
sVSignature
p3981
g44
sVContactFlag
p3982
I1
sVNickName
p3983
V\u871a\u871a
p3984
sVRemarkPYQuanPin
p3985
Vliaoweiling
p3986
sVHeadImgUrl
p3987
V/cgi-bin/mmwebwx-bin/webwxgeticon?seq=681325158&username=@65b7bac96d88feb58ee2ad6e466fb547436f024ab43301feab7421175cd057be&skey=@crypt_c4463405_3b7c724258920b3156a723070c0a22f1
p3988
sVSex
p3989
I2
sVStarFriend
p3990
I0
sVStatues
p3991
I0
sa(dp3992
VUserName
p3993
V@a5daa7818cd0bf3c1363b210084b8f034f37a424e2eb57fc9b40e97e49bbce58
p3994
sVCity
p3995
g44
sVDisplayName
p3996
g44
sVUniFriend
p3997
I0
sVMemberList
p3998
(lp3999
sVPYQuanPin
p4000
Vrexinshiminxiaogao
p4001
sVRemarkPYInitial
p4002
VGLJ
p4003
sVUin
p4004
I0
sVAppAccountFlag
p4005
I0
sVVerifyFlag
p4006
I0
sVProvince
p4007
VCarlow
p4008
sVKeyWord
p4009
g44
sVRemarkName
p4010
V\u9ad8\u6797\u6770
p4011
sVPYInitial
p4012
VRXSMXG
p4013
sVChatRoomId
p4014
I0
sVIsOwner
p4015
I0
sVHideInputBarFlag
p4016
I0
sVEncryChatRoomId
p4017
g44
sVAttrStatus
p4018
I102437
sVSnsFlag
p4019
I1
sVMemberCount
p4020
I0
sVOwnerUin
p4021
I0
sVAlias
p4022
g44
sVSignature
p4023
V\u70ed\u7231\u4e16\u95f4\u4e07\u7269                                     .
p4024
sVContactFlag
p4025
I1
sVNickName
p4026
V\u70ed\u5fc3\u5e02\u6c11\u5c0f\u9ad8
p4027
sVRemarkPYQuanPin
p4028
Vgaolinjie
p4029
sVHeadImgUrl
p4030
V/cgi-bin/mmwebwx-bin/webwxgeticon?seq=681321160&username=@a5daa7818cd0bf3c1363b210084b8f034f37a424e2eb57fc9b40e97e49bbce58&skey=@crypt_c4463405_3b7c724258920b3156a723070c0a22f1
p4031
sVSex
p4032
I2
sVStarFriend
p4033
I0
sVStatues
p4034
I0
sa(dp4035
VUserName
p4036
V@d0f8397a3bd326ff58bea7b96ed76a203678cccaebc80e9c9afc73b74ba30e2a
p4037
sVCity
p4038
g44
sVDisplayName
p4039
g44
sVUniFriend
p4040
I0
sVMemberList
p4041
(lp4042
sVPYQuanPin
p4043
Vxiaolitongxue
p4044
sVRemarkPYInitial
p4045
VLZW
p4046
sVUin
p4047
I0
sVAppAccountFlag
p4048
I0
sVVerifyFlag
p4049
I0
sVProvince
p4050
g44
sVKeyWord
p4051
g44
sVRemarkName
p4052
V\u674e\u54f2\u6587
p4053
sVPYInitial
p4054
VXLTX
p4055
sVChatRoomId
p4056
I0
sVIsOwner
p4057
I0
sVHideInputBarFlag
p4058
I0
sVEncryChatRoomId
p4059
g44
sVAttrStatus
p4060
I233573
sVSnsFlag
p4061
I257
sVMemberCount
p4062
I0
sVOwnerUin
p4063
I0
sVAlias
p4064
g44
sVSignature
p4065
g44
sVContactFlag
p4066
I1
sVNickName
p4067
V\u5c0f\u674e\u540c\u5b66
p4068
sVRemarkPYQuanPin
p4069
Vlizhewen
p4070
sVHeadImgUrl
p4071
V/cgi-bin/mmwebwx-bin/webwxgeticon?seq=708768469&username=@d0f8397a3bd326ff58bea7b96ed76a203678cccaebc80e9c9afc73b74ba30e2a&skey=@crypt_c4463405_3b7c724258920b3156a723070c0a22f1
p4072
sVSex
p4073
I0
sVStarFriend
p4074
I0
sVStatues
p4075
I0
sa(dp4076
VUserName
p4077
V@1280296cb2d13ae41f051b9bd420155470daea0936239c2a4e626da574df729d
p4078
sVCity
p4079
g44
sVDisplayName
p4080
g44
sVUniFriend
p4081
I0
sVMemberList
p4082
(lp4083
sVPYQuanPin
p4084
Vzuanouqiaobiluo
p4085
sVRemarkPYInitial
p4086
VZR
p4087
sVUin
p4088
I0
sVAppAccountFlag
p4089
I0
sVVerifyFlag
p4090
I0
sVProvince
p4091
VMadrid
p4092
sVKeyWord
p4093
g44
sVRemarkName
p4094
V\u8d75\u745e
p4095
sVPYInitial
p4096
VZAOQBL
p4097
sVChatRoomId
p4098
I0
sVIsOwner
p4099
I0
sVHideInputBarFlag
p4100
I0
sVEncryChatRoomId
p4101
g44
sVAttrStatus
p4102
I135525
sVSnsFlag
p4103
I1
sVMemberCount
p4104
I0
sVOwnerUin
p4105
I0
sVAlias
p4106
g44
sVSignature
p4107
V\u8d2b\u50e7\u60f3\u5f00\u6316\u6398\u673a\uff0c\u5f00\u56de\u5927\u5510\u88c5\u5927\u903c\u3002
p4108
sVContactFlag
p4109
I1
sVNickName
p4110
V\u7956\u5b89\u533a\u4e54\u78a7\u841d
p4111
sVRemarkPYQuanPin
p4112
Vzhaorui
p4113
sVHeadImgUrl
p4114
V/cgi-bin/mmwebwx-bin/webwxgeticon?seq=708768488&username=@1280296cb2d13ae41f051b9bd420155470daea0936239c2a4e626da574df729d&skey=@crypt_c4463405_3b7c724258920b3156a723070c0a22f1
p4115
sVSex
p4116
I2
sVStarFriend
p4117
I0
sVStatues
p4118
I0
sa(dp4119
VUserName
p4120
V@0ce00e4541aadd63696d8ff0c78facb9ece83c139ccfa8c56f8280b9aea0155e
p4121
sVCity
p4122
g44
sVDisplayName
p4123
g44
sVUniFriend
p4124
I0
sVMemberList
p4125
(lp4126
sVPYQuanPin
p4127
g44
sVRemarkPYInitial
p4128
VSHB
p4129
sVUin
p4130
I0
sVAppAccountFlag
p4131
I0
sVVerifyFlag
p4132
I0
sVProvince
p4133
g44
sVKeyWord
p4134
g44
sVRemarkName
p4135
V\u65bd\u6d69\u658c
p4136
sVPYInitial
p4137
g44
sVChatRoomId
p4138
I0
sVIsOwner
p4139
I0
sVHideInputBarFlag
p4140
I0
sVEncryChatRoomId
p4141
g44
sVAttrStatus
p4142
I103293
sVSnsFlag
p4143
I257
sVMemberCount
p4144
I0
sVOwnerUin
p4145
I0
sVAlias
p4146
g44
sVSignature
p4147
g44
sVContactFlag
p4148
I1
sVNickName
p4149
g3769
sVRemarkPYQuanPin
p4150
Vshihaobin
p4151
sVHeadImgUrl
p4152
V/cgi-bin/mmwebwx-bin/webwxgeticon?seq=708768506&username=@0ce00e4541aadd63696d8ff0c78facb9ece83c139ccfa8c56f8280b9aea0155e&skey=@crypt_c4463405_3b7c724258920b3156a723070c0a22f1
p4153
sVSex
p4154
I1
sVStarFriend
p4155
I0
sVStatues
p4156
I0
sa(dp4157
VUserName
p4158
V@3fdf19c745790f1986d109c9af8732e22e358544fb7f290437d5bcf84b7a0665
p4159
sVCity
p4160
g44
sVDisplayName
p4161
g44
sVUniFriend
p4162
I0
sVMemberList
p4163
(lp4164
sVPYQuanPin
p4165
g539
sVRemarkPYInitial
p4166
VCL
p4167
sVUin
p4168
I0
sVAppAccountFlag
p4169
I0
sVVerifyFlag
p4170
I0
sVProvince
p4171
g44
sVKeyWord
p4172
g44
sVRemarkName
p4173
V\u660c\u529b
p4174
sVPYInitial
p4175
g539
sVChatRoomId
p4176
I0
sVIsOwner
p4177
I0
sVHideInputBarFlag
p4178
I0
sVEncryChatRoomId
p4179
g44
sVAttrStatus
p4180
I113277
sVSnsFlag
p4181
I305
sVMemberCount
p4182
I0
sVOwnerUin
p4183
I0
sVAlias
p4184
g44
sVSignature
p4185
V\u8ff7\u5931\u7684\u4eba\u8ff7\u5931\u4e86
p4186
sVContactFlag
p4187
I65
sVNickName
p4188
g539
sVRemarkPYQuanPin
p4189
Vchangli
p4190
sVHeadImgUrl
p4191
V/cgi-bin/mmwebwx-bin/webwxgeticon?seq=681309411&username=@3fdf19c745790f1986d109c9af8732e22e358544fb7f290437d5bcf84b7a0665&skey=@crypt_c4463405_3b7c724258920b3156a723070c0a22f1
p4192
sVSex
p4193
I1
sVStarFriend
p4194
I1
sVStatues
p4195
I0
sa(dp4196
VUserName
p4197
V@2549ef0a28115348e47a4ff9bdc6be2acecb2c4819d0951e13a83b768866ecae
p4198
sVCity
p4199
V\u4e4c\u9c81\u6728\u9f50
p4200
sVDisplayName
p4201
g44
sVUniFriend
p4202
I0
sVMemberList
p4203
(lp4204
sVPYQuanPin
p4205
VSecondary
p4206
sVRemarkPYInitial
p4207
VYYC
p4208
sVUin
p4209
I0
sVAppAccountFlag
p4210
I0
sVVerifyFlag
p4211
I0
sVProvince
p4212
V\u65b0\u7586
p4213
sVKeyWord
p4214
g44
sVRemarkName
p4215
V\u6768\u5b87\u6668
p4216
sVPYInitial
p4217
VSECONDARY
p4218
sVChatRoomId
p4219
I0
sVIsOwner
p4220
I0
sVHideInputBarFlag
p4221
I0
sVEncryChatRoomId
p4222
g44
sVAttrStatus
p4223
I16888165
sVSnsFlag
p4224
I433
sVMemberCount
p4225
I0
sVOwnerUin
p4226
I0
sVAlias
p4227
g44
sVSignature
p4228
V\u5c81\u6708\u5176\u5b9e\u6709\u81ea\u91cd\u3002
p4229
sVContactFlag
p4230
I1
sVNickName
p4231
VSecondary.
p4232
sVRemarkPYQuanPin
p4233
Vyangyuchen
p4234
sVHeadImgUrl
p4235
V/cgi-bin/mmwebwx-bin/webwxgeticon?seq=708768610&username=@2549ef0a28115348e47a4ff9bdc6be2acecb2c4819d0951e13a83b768866ecae&skey=@crypt_c4463405_3b7c724258920b3156a723070c0a22f1
p4236
sVSex
p4237
I1
sVStarFriend
p4238
I0
sVStatues
p4239
I0
sa(dp4240
VUserName
p4241
V@8d29619e9eadb6b5246036c4a6be8b9f6ab316569cb1b9e7a5c2d5671fe9ad18
p4242
sVCity
p4243
VLos Angeles
p4244
sVDisplayName
p4245
g44
sVUniFriend
p4246
I0
sVMemberList
p4247
(lp4248
sVPYQuanPin
p4249
Vspanclassemojiemoji1f30aspanEdwwinwanmeixijiezhanshengyiqie
p4250
sVRemarkPYInitial
p4251
VYMY
p4252
sVUin
p4253
I0
sVAppAccountFlag
p4254
I0
sVVerifyFlag
p4255
I0
sVProvince
p4256
VCalifornia
p4257
sVKeyWord
p4258
g44
sVRemarkName
p4259
V\u4e8e\u660e\u6d0b
p4260
sVPYInitial
p4261
VSPANCLASSEMOJIEMOJI1F30ASPANEDWWINWMXJZSYQ
p4262
sVChatRoomId
p4263
I0
sVIsOwner
p4264
I0
sVHideInputBarFlag
p4265
I0
sVEncryChatRoomId
p4266
g44
sVAttrStatus
p4267
I102501
sVSnsFlag
p4268
I273
sVMemberCount
p4269
I0
sVOwnerUin
p4270
I0
sVAlias
p4271
g44
sVSignature
p4272
V\u54c1\u8d28\u4fdd\u969c \u4e00\u624b\u8d27\u6e90\u000a\u9ad8\u6548\u6c9f\u901a \u4ee3\u7406588\u000a\u795d\u8d2d\u7269\u6109\u5feb<span class="emoji emoji1f525"></span>(\u5efa\u8bae<span class="emoji emoji1f31f"></span>
p4273
sVContactFlag
p4274
I65537
sVNickName
p4275
V\U0001f30aEdwwin_ ( \u5b8c\u7f8e\u7ec6\u8282\u6218\u80dc\u4e00\u5207
p4276
sVRemarkPYQuanPin
p4277
Vyumingyang
p4278
sVHeadImgUrl
p4279
V/cgi-bin/mmwebwx-bin/webwxgeticon?seq=708767929&username=@8d29619e9eadb6b5246036c4a6be8b9f6ab316569cb1b9e7a5c2d5671fe9ad18&skey=@crypt_c4463405_3b7c724258920b3156a723070c0a22f1
p4280
sVSex
p4281
I1
sVStarFriend
p4282
I0
sVStatues
p4283
I0
sa(dp4284
VUserName
p4285
V@ede7fc35f6c61ce387710e4a496372e14e479dd4417392b78017fcc54a54580b
p4286
sVCity
p4287
V\u7259\u4e70\u52a0
p4288
sVDisplayName
p4289
g44
sVUniFriend
p4290
I0
sVMemberList
p4291
(lp4292
sVPYQuanPin
p4293
g44
sVRemarkPYInitial
p4294
VLQ
p4295
sVUin
p4296
I0
sVAppAccountFlag
p4297
I0
sVVerifyFlag
p4298
I0
sVProvince
p4299
V\u5176\u4ed6
p4300
sVKeyWord
p4301
g44
sVRemarkName
p4302
V\u674e\u5f3a
p4303
sVPYInitial
p4304
g44
sVChatRoomId
p4305
I0
sVIsOwner
p4306
I0
sVContactType
p4307
I0
sVHideInputBarFlag
p4308
I0
sVEncryChatRoomId
p4309
g44
sVAttrStatus
p4310
I102437
sVSnsFlag
p4311
I1
sVMemberCount
p4312
I0
sVOwnerUin
p4313
I0
sVAlias
p4314
g44
sVSignature
p4315
g44
sVContactFlag
p4316
I1
sVNickName
p4317
V\u3002
p4318
sVChatRoomOwner
p4319
g44
sVRemarkPYQuanPin
p4320
Vliqiang
p4321
sVHeadImgUrl
p4322
V/cgi-bin/mmwebwx-bin/webwxgeticon?seq=708768026&username=@ede7fc35f6c61ce387710e4a496372e14e479dd4417392b78017fcc54a54580b&skey=@crypt_c4463405_3b7c724258920b3156a723070c0a22f1
p4323
sVSex
p4324
I1
sVStarFriend
p4325
I0
sVStatues
p4326
I0
sVHeadImgUpdateFlag
p4327
I1
sa(dp4328
VUserName
p4329
V@57e7fad0f8e22b919113cd3783119a7777a3290542c02ba22d986037c6fbea07
p4330
sVCity
p4331
g44
sVDisplayName
p4332
g44
sVUniFriend
p4333
I0
sVMemberList
p4334
(lp4335
sVPYQuanPin
p4336
VWK250Kg
p4337
sVRemarkPYInitial
p4338
VWK
p4339
sVUin
p4340
I0
sVAppAccountFlag
p4341
I0
sVVerifyFlag
p4342
I0
sVProvince
p4343
V\u6e56\u5317
p4344
sVKeyWord
p4345
g44
sVRemarkName
p4346
V\u4e07\u79d1
p4347
sVPYInitial
p4348
VWK250KG
p4349
sVChatRoomId
p4350
I0
sVIsOwner
p4351
I0
sVHideInputBarFlag
p4352
I0
sVEncryChatRoomId
p4353
g44
sVAttrStatus
p4354
I36965
sVSnsFlag
p4355
I257
sVMemberCount
p4356
I0
sVOwnerUin
p4357
I0
sVAlias
p4358
g44
sVSignature
p4359
V\u6211\u5f88\u5fd9
p4360
sVContactFlag
p4361
I1
sVNickName
p4362
VWK250Kg
p4363
sVRemarkPYQuanPin
p4364
Vwanke
p4365
sVHeadImgUrl
p4366
V/cgi-bin/mmwebwx-bin/webwxgeticon?seq=681320503&username=@57e7fad0f8e22b919113cd3783119a7777a3290542c02ba22d986037c6fbea07&skey=@crypt_c4463405_3b7c724258920b3156a723070c0a22f1
p4367
sVSex
p4368
I1
sVStarFriend
p4369
I0
sVStatues
p4370
I0
sa(dp4371
VUserName
p4372
V@0b1d5f6233ec48d7db6c72dfbaeb8630687544a29427f69d79c4b510b266d544
p4373
sVCity
p4374
V\u54c8\u5c14\u6ee8
p4375
sVDisplayName
p4376
g44
sVUniFriend
p4377
I0
sVMemberList
p4378
(lp4379
sVPYQuanPin
p4380
Vyagedianzijian
p4381
sVRemarkPYInitial
p4382
VLF
p4383
sVUin
p4384
I0
sVAppAccountFlag
p4385
I0
sVVerifyFlag
p4386
I0
sVProvince
p4387
V\u9ed1\u9f99\u6c5f
p4388
sVKeyWord
p4389
g44
sVRemarkName
p4390
V\u7406\u53d1
p4391
sVPYInitial
p4392
VYGDZJ
p4393
sVChatRoomId
p4394
I0
sVIsOwner
p4395
I0
sVHideInputBarFlag
p4396
I0
sVEncryChatRoomId
p4397
g44
sVAttrStatus
p4398
I102909
sVSnsFlag
p4399
I305
sVMemberCount
p4400
I0
sVOwnerUin
p4401
I0
sVAlias
p4402
g44
sVSignature
p4403
V\u526a\u5934\u53d1\u4e0d\u662f\u526a\u6389\u591a\u5c11\u5934\u53d1\u800c\u662f\u526a\u6389\u5934\u53d1\u4fee\u9970\u4f60\u7684\u8138\u578b
p4404
sVContactFlag
p4405
I65537
sVNickName
p4406
V\u96c5\u683c\u5e97\u5b50\u5065
p4407
sVRemarkPYQuanPin
p4408
Vlifa
p4409
sVHeadImgUrl
p4410
V/cgi-bin/mmwebwx-bin/webwxgeticon?seq=708768719&username=@0b1d5f6233ec48d7db6c72dfbaeb8630687544a29427f69d79c4b510b266d544&skey=@crypt_c4463405_3b7c724258920b3156a723070c0a22f1
p4411
sVSex
p4412
I1
sVStarFriend
p4413
I0
sVStatues
p4414
I0
sa(dp4415
VUserName
p4416
V@842f160df72dde69d2bb3ab31f9ff20f37079a883dfda298ce8ba3fc6c482bfa
p4417
sVCity
p4418
V\u5e7f\u5dde
p4419
sVDisplayName
p4420
g44
sVUniFriend
p4421
I0
sVMemberList
p4422
(lp4423
sVPYQuanPin
p4424
Vjuzihuihuang
p4425
sVRemarkPYInitial
p4426
VXZY
p4427
sVUin
p4428
I0
sVAppAccountFlag
p4429
I0
sVVerifyFlag
p4430
I0
sVProvince
p4431
V\u5e7f\u4e1c
p4432
sVKeyWord
p4433
g44
sVRemarkName
p4434
V\u8096\u82b7\u6708
p4435
sVPYInitial
p4436
VJZHH
p4437
sVChatRoomId
p4438
I0
sVIsOwner
p4439
I0
sVContactType
p4440
I0
sVHideInputBarFlag
p4441
I0
sVEncryChatRoomId
p4442
g44
sVAttrStatus
p4443
I104741
sVSnsFlag
p4444
I1
sVMemberCount
p4445
I0
sVOwnerUin
p4446
I0
sVAlias
p4447
g44
sVSignature
p4448
V\u5929\u4e0e\u5730\u5351\uff0c\u5c71\u4e0e\u6cfd\u5e73\u3002
p4449
sVContactFlag
p4450
I65
sVNickName
p4451
V\u6a58\u5b50\u8f89\u714c
p4452
sVChatRoomOwner
p4453
g44
sVRemarkPYQuanPin
p4454
Vxiaozhiyue
p4455
sVHeadImgUrl
p4456
V/cgi-bin/mmwebwx-bin/webwxgeticon?seq=681324485&username=@842f160df72dde69d2bb3ab31f9ff20f37079a883dfda298ce8ba3fc6c482bfa&skey=@crypt_c4463405_3b7c724258920b3156a723070c0a22f1
p4457
sVSex
p4458
I2
sVStarFriend
p4459
I1
sVStatues
p4460
I0
sVHeadImgUpdateFlag
p4461
I1
sa(dp4462
VUserName
p4463
V@dd0c62b2b28b95cc88d33c4c46183dffcd07c9ec558b18cd23fbd2cfb06aeab8
p4464
sVCity
p4465
g44
sVDisplayName
p4466
g44
sVUniFriend
p4467
I0
sVMemberList
p4468
(lp4469
sVPYQuanPin
p4470
VOliver
p4471
sVRemarkPYInitial
p4472
VYY
p4473
sVUin
p4474
I0
sVAppAccountFlag
p4475
I0
sVVerifyFlag
p4476
I0
sVProvince
p4477
VDubai
p4478
sVKeyWord
p4479
g44
sVRemarkName
p4480
V\u6768\u9633
p4481
sVPYInitial
p4482
VOLIVER
p4483
sVChatRoomId
p4484
I0
sVIsOwner
p4485
I0
sVHideInputBarFlag
p4486
I0
sVEncryChatRoomId
p4487
g44
sVAttrStatus
p4488
I102437
sVSnsFlag
p4489
I257
sVMemberCount
p4490
I0
sVOwnerUin
p4491
I0
sVAlias
p4492
g44
sVSignature
p4493
g44
sVContactFlag
p4494
I1
sVNickName
p4495
VOliver
p4496
sVRemarkPYQuanPin
p4497
Vyangyang
p4498
sVHeadImgUrl
p4499
V/cgi-bin/mmwebwx-bin/webwxgeticon?seq=681323746&username=@dd0c62b2b28b95cc88d33c4c46183dffcd07c9ec558b18cd23fbd2cfb06aeab8&skey=@crypt_c4463405_3b7c724258920b3156a723070c0a22f1
p4500
sVSex
p4501
I1
sVStarFriend
p4502
I0
sVStatues
p4503
I0
sa(dp4504
VUserName
p4505
V@2a2861f80e98c3a7d9aaf0120971760636e4ae206d8a18989f2792dc7591b95d
p4506
sVCity
p4507
g44
sVDisplayName
p4508
g44
sVUniFriend
p4509
I0
sVMemberList
p4510
(lp4511
sVPYQuanPin
p4512
Vguailishaonv
p4513
sVRemarkPYInitial
p4514
VLXY
p4515
sVUin
p4516
I0
sVAppAccountFlag
p4517
I0
sVVerifyFlag
p4518
I0
sVProvince
p4519
VMadrid
p4520
sVKeyWord
p4521
g44
sVRemarkName
p4522
V\u674e\u96ea\u9896
p4523
sVPYInitial
p4524
VGLSN
p4525
sVChatRoomId
p4526
I0
sVIsOwner
p4527
I0
sVHideInputBarFlag
p4528
I0
sVEncryChatRoomId
p4529
g44
sVAttrStatus
p4530
I102781
sVSnsFlag
p4531
I257
sVMemberCount
p4532
I0
sVOwnerUin
p4533
I0
sVAlias
p4534
g44
sVSignature
p4535
V<span class="emoji emoji2764"></span>ZC
p4536
sVContactFlag
p4537
I65537
sVNickName
p4538
V\u602a\u529b\u5c11\u5973.
p4539
sVRemarkPYQuanPin
p4540
Vlixueying
p4541
sVHeadImgUrl
p4542
V/cgi-bin/mmwebwx-bin/webwxgeticon?seq=681312355&username=@2a2861f80e98c3a7d9aaf0120971760636e4ae206d8a18989f2792dc7591b95d&skey=@crypt_c4463405_3b7c724258920b3156a723070c0a22f1
p4543
sVSex
p4544
I2
sVStarFriend
p4545
I0
sVStatues
p4546
I0
sa(dp4547
VUserName
p4548
V@27340863329825103adeff0a791c8941794f44dc24e272df825fd9e01db16039
p4549
sVCity
p4550
V\u4f0a\u6625
p4551
sVDisplayName
p4552
g44
sVUniFriend
p4553
I0
sVMemberList
p4554
(lp4555
sVPYQuanPin
p4556
VHanhanhanspanclassemojiemoji1f31fspan
p4557
sVRemarkPYInitial
p4558
VXQH
p4559
sVUin
p4560
I0
sVAppAccountFlag
p4561
I0
sVVerifyFlag
p4562
I0
sVProvince
p4563
V\u9ed1\u9f99\u6c5f
p4564
sVKeyWord
p4565
g44
sVRemarkName
p4566
V\u5f90\u7426\u6657
p4567
sVPYInitial
p4568
VHANHANHANSPANCLASSEMOJIEMOJI1F31FSPAN
p4569
sVChatRoomId
p4570
I0
sVIsOwner
p4571
I0
sVHideInputBarFlag
p4572
I0
sVEncryChatRoomId
p4573
g44
sVAttrStatus
p4574
I69989
sVSnsFlag
p4575
I273
sVMemberCount
p4576
I0
sVOwnerUin
p4577
I0
sVAlias
p4578
g44
sVSignature
p4579
V\u8d2a\u8d22 \u6709\u9053\uff0c\u597d\u8272 \u6709\u54c1\u3002\u662f\u4e2a\u4fd7\u4eba
p4580
sVContactFlag
p4581
I1
sVNickName
p4582
VHanhanhan\U0001f31f
p4583
sVRemarkPYQuanPin
p4584
Vxuqihan
p4585
sVHeadImgUrl
p4586
V/cgi-bin/mmwebwx-bin/webwxgeticon?seq=681322737&username=@27340863329825103adeff0a791c8941794f44dc24e272df825fd9e01db16039&skey=@crypt_c4463405_3b7c724258920b3156a723070c0a22f1
p4587
sVSex
p4588
I1
sVStarFriend
p4589
I0
sVStatues
p4590
I0
sa(dp4591
VUserName
p4592
V@fa65937e9c7ca61a11109afcc770f596a45ae858d0ffb938836fd501acd24858
p4593
sVCity
p4594
g44
sVDisplayName
p4595
g44
sVUniFriend
p4596
I0
sVMemberList
p4597
(lp4598
sVPYQuanPin
p4599
VKaeto????
p4600
sVRemarkPYInitial
p4601
VWJJ
p4602
sVUin
p4603
I0
sVAppAccountFlag
p4604
I0
sVVerifyFlag
p4605
I0
sVProvince
p4606
g44
sVKeyWord
p4607
g44
sVRemarkName
p4608
V\u738b\u4fca\u6770
p4609
sVPYInitial
p4610
VKAETO????
p4611
sVChatRoomId
p4612
I0
sVIsOwner
p4613
I0
sVHideInputBarFlag
p4614
I0
sVEncryChatRoomId
p4615
g44
sVAttrStatus
p4616
I33658237
sVSnsFlag
p4617
I17
sVMemberCount
p4618
I0
sVOwnerUin
p4619
I0
sVAlias
p4620
g44
sVSignature
p4621
V\u4eba\u4e11\u5c31\u8981\u591a\u8bfb\u4e66\U0001f644
p4622
sVContactFlag
p4623
I1
sVNickName
p4624
VKaeto \u208d\u1422.  .\u1422\u208e
p4625
sVRemarkPYQuanPin
p4626
Vwangjunjie
p4627
sVHeadImgUrl
p4628
V/cgi-bin/mmwebwx-bin/webwxgeticon?seq=708767077&username=@fa65937e9c7ca61a11109afcc770f596a45ae858d0ffb938836fd501acd24858&skey=@crypt_c4463405_3b7c724258920b3156a723070c0a22f1
p4629
sVSex
p4630
I1
sVStarFriend
p4631
I0
sVStatues
p4632
I0
sa(dp4633
VUserName
p4634
V@cd8544b47d5cb9f5058562f2db1eea6806026aead6ea72ccda08d0df774038fc
p4635
sVCity
p4636
V\u6c5f\u95e8
p4637
sVDisplayName
p4638
g44
sVUniFriend
p4639
I0
sVMemberList
p4640
(lp4641
sVPYQuanPin
p4642
Vsaisai
p4643
sVRemarkPYInitial
p4644
VMOM
p4645
sVUin
p4646
I0
sVAppAccountFlag
p4647
I0
sVVerifyFlag
p4648
I0
sVProvince
p4649
V\u5e7f\u4e1c
p4650
sVKeyWord
p4651
g44
sVRemarkName
p4652
Vmom
p4653
sVPYInitial
p4654
VSS
p4655
sVChatRoomId
p4656
I0
sVIsOwner
p4657
I0
sVHideInputBarFlag
p4658
I0
sVEncryChatRoomId
p4659
g44
sVAttrStatus
p4660
I102913
sVSnsFlag
p4661
I257
sVMemberCount
p4662
I0
sVOwnerUin
p4663
I0
sVAlias
p4664
g44
sVSignature
p4665
V\u5fc3\u6001\u597d\u6bd4\u4ec0\u4e48\u90fd\u597d
p4666
sVContactFlag
p4667
I65537
sVNickName
p4668
V\u601d\u601d
p4669
sVRemarkPYQuanPin
p4670
Vmom
p4671
sVHeadImgUrl
p4672
V/cgi-bin/mmwebwx-bin/webwxgeticon?seq=681320534&username=@cd8544b47d5cb9f5058562f2db1eea6806026aead6ea72ccda08d0df774038fc&skey=@crypt_c4463405_3b7c724258920b3156a723070c0a22f1
p4673
sVSex
p4674
I2
sVStarFriend
p4675
I0
sVStatues
p4676
I0
sa(dp4677
VUserName
p4678
V@ffcf3b0abe809e05f4571f7675f034a569b5746bc8cc11eab9fc215ec6bffe39
p4679
sVCity
p4680
V\u9a7b\u9a6c\u5e97
p4681
sVDisplayName
p4682
g44
sVUniFriend
p4683
I0
sVMemberList
p4684
(lp4685
sVPYQuanPin
p4686
Vbenben
p4687
sVRemarkPYInitial
p4688
VDAD
p4689
sVUin
p4690
I0
sVAppAccountFlag
p4691
I0
sVVerifyFlag
p4692
I0
sVProvince
p4693
V\u6cb3\u5357
p4694
sVKeyWord
p4695
g44
sVRemarkName
p4696
Vdad
p4697
sVPYInitial
p4698
VBB
p4699
sVChatRoomId
p4700
I0
sVIsOwner
p4701
I0
sVHideInputBarFlag
p4702
I0
sVEncryChatRoomId
p4703
g44
sVAttrStatus
p4704
I135205
sVSnsFlag
p4705
I257
sVMemberCount
p4706
I0
sVOwnerUin
p4707
I0
sVAlias
p4708
g44
sVSignature
p4709
g44
sVContactFlag
p4710
I1
sVNickName
p4711
V\u7287\u7287
p4712
sVRemarkPYQuanPin
p4713
Vdad
p4714
sVHeadImgUrl
p4715
V/cgi-bin/mmwebwx-bin/webwxgeticon?seq=681212193&username=@ffcf3b0abe809e05f4571f7675f034a569b5746bc8cc11eab9fc215ec6bffe39&skey=@crypt_c4463405_3b7c724258920b3156a723070c0a22f1
p4716
sVSex
p4717
I1
sVStarFriend
p4718
I0
sVStatues
p4719
I0
sasS'chatroomList'
p4720
(lp4721
(dp4722
VUserName
p4723
V@@1a2bcaf856fc1e8fe17297a1bc3c0da16f8626c881a47102d03adebd0e9cacf7
p4724
sVCity
p4725
g44
sVDisplayName
p4726
g44
sVUniFriend
p4727
I0
sS'self'
p4728
(dp4729
g36
g31
sg37
g38
sg39
g38
sg40
I0
sg61
I0
sg41
(lp4730
sg43
g44
sg45
g44
sg71
I1424655402
sg47
I0
sg48
I0
sg49
g38
sg50
g38
sg51
g44
sg52
g44
sg53
I0
sg54
I0
sg55
I1
sg56
g38
sg57
I0
sg59
I16
sg60
I0
sg58
I0
sg62
g38
sg63
g64
sg65
I0
sg66
g67
sg68
g44
sg69
g70
sg46
I1
sg72
I0
sg73
I0
ssVMemberList
p4731
(lp4732
sVPYQuanPin
p4733
V20203lanqiaobeishengsai
p4734
sVRemarkPYInitial
p4735
g44
sVSex
p4736
I0
sVAppAccountFlag
p4737
I0
sVVerifyFlag
p4738
I0
sVProvince
p4739
g44
sVKeyWord
p4740
g44
sVRemarkName
p4741
g44
sVPYInitial
p4742
V20203LQBSS
p4743
sVIsOwner
p4744
I0
sVChatRoomId
p4745
I0
sVHideInputBarFlag
p4746
I0
sVEncryChatRoomId
p4747
g44
sVAttrStatus
p4748
I0
sVSnsFlag
p4749
I0
sVMemberCount
p4750
I0
sVOwnerUin
p4751
I0
sVAlias
p4752
g44
sVSignature
p4753
g44
sVContactFlag
p4754
I1
sVNickName
p4755
V2020.3  \u84dd\u6865\u676f\u7701\u8d5b
p4756
sVRemarkPYQuanPin
p4757
g44
sVHeadImgUrl
p4758
V/cgi-bin/mmwebwx-bin/webwxgetheadimg?seq=708767814&username=@@1a2bcaf856fc1e8fe17297a1bc3c0da16f8626c881a47102d03adebd0e9cacf7&skey=@crypt_c4463405_3b7c724258920b3156a723070c0a22f1
p4759
sVUin
p4760
I0
sVStarFriend
p4761
I0
sVStatues
p4762
I0
sS'isAdmin'
p4763
Nsa(dp4764
VUserName
p4765
V@@12952f690ef73a83fba8d918ee9c6740a314468428ecb537b0b86606ba8864ae
p4766
sVCity
p4767
g44
sVDisplayName
p4768
g44
sVUniFriend
p4769
I0
sg4728
(dp4770
g36
g31
sg37
g38
sg39
g38
sg40
I0
sg61
I0
sg41
(lp4771
sg43
g44
sg45
g44
sg71
I1424655402
sg47
I0
sg48
I0
sg49
g38
sg50
g38
sg51
g44
sg52
g44
sg53
I0
sg54
I0
sg55
I1
sg56
g38
sg57
I0
sg59
I16
sg60
I0
sg58
I0
sg62
g38
sg63
g64
sg65
I0
sg66
g67
sg68
g44
sg69
g70
sg46
I1
sg72
I0
sg73
I0
ssVMemberList
p4772
(lp4773
sVPYQuanPin
p4774
Vwanglaoanquansibanspanclassemojiemoji2b50span?
p4775
sVRemarkPYInitial
p4776
g44
sVSex
p4777
I0
sVAppAccountFlag
p4778
I0
sVVerifyFlag
p4779
I0
sVProvince
p4780
g44
sVKeyWord
p4781
g44
sVRemarkName
p4782
g44
sVPYInitial
p4783
VWLAQSBSPANCLASSEMOJIEMOJI2B50SPAN?
p4784
sVIsOwner
p4785
I0
sVChatRoomId
p4786
I0
sVHideInputBarFlag
p4787
I0
sVEncryChatRoomId
p4788
g44
sVAttrStatus
p4789
I0
sVSnsFlag
p4790
I0
sVMemberCount
p4791
I0
sVOwnerUin
p4792
I0
sVAlias
p4793
g44
sVSignature
p4794
g44
sVContactFlag
p4795
I1
sVNickName
p4796
V\u7f51\u7edc\u5b89\u5168\u56db\u73ed\u2b50\ufe0f
p4797
sVRemarkPYQuanPin
p4798
g44
sVHeadImgUrl
p4799
V/cgi-bin/mmwebwx-bin/webwxgetheadimg?seq=681327369&username=@@12952f690ef73a83fba8d918ee9c6740a314468428ecb537b0b86606ba8864ae&skey=@crypt_c4463405_3b7c724258920b3156a723070c0a22f1
p4800
sVUin
p4801
I0
sVStarFriend
p4802
I0
sVStatues
p4803
I0
sg4763
Nsa(dp4804
VUserName
p4805
V@@4e49d35b34357bc076995f234944b96cc02fb6b29e5bbfb7e2c76887d8755434
p4806
sVCity
p4807
g44
sVDisplayName
p4808
g44
sVUniFriend
p4809
I0
sg4728
(dp4810
g36
g31
sg37
g38
sg39
g38
sg40
I0
sg61
I0
sg41
(lp4811
sg43
g44
sg45
g44
sg71
I1424655402
sg47
I0
sg48
I0
sg49
g38
sg50
g38
sg51
g44
sg52
g44
sg53
I0
sg54
I0
sg55
I1
sg56
g38
sg57
I0
sg59
I16
sg60
I0
sg58
I0
sg62
g38
sg63
g64
sg65
I0
sg66
g67
sg68
g44
sg69
g70
sg46
I1
sg72
I0
sg73
I0
ssVMemberList
p4812
(lp4813
sVPYQuanPin
p4814
Vzhuaizhuai?weiquan
p4815
sVRemarkPYInitial
p4816
g44
sVSex
p4817
I0
sVAppAccountFlag
p4818
I0
sVVerifyFlag
p4819
I0
sVProvince
p4820
g44
sVKeyWord
p4821
g44
sVRemarkName
p4822
g44
sVPYInitial
p4823
VZZ?WQ
p4824
sVIsOwner
p4825
I0
sVChatRoomId
p4826
I0
sVHideInputBarFlag
p4827
I0
sVEncryChatRoomId
p4828
g44
sVAttrStatus
p4829
I0
sVSnsFlag
p4830
I0
sVMemberCount
p4831
I0
sVOwnerUin
p4832
I0
sVAlias
p4833
g44
sVSignature
p4834
g44
sVContactFlag
p4835
I3
sVNickName
p4836
V\u8f6c\u8f6c\U0001f4db\u7ef4\u6743
p4837
sVRemarkPYQuanPin
p4838
g44
sVHeadImgUrl
p4839
V/cgi-bin/mmwebwx-bin/webwxgetheadimg?seq=708768279&username=@@4e49d35b34357bc076995f234944b96cc02fb6b29e5bbfb7e2c76887d8755434&skey=@crypt_c4463405_3b7c724258920b3156a723070c0a22f1
p4840
sVUin
p4841
I0
sVStarFriend
p4842
I0
sVStatues
p4843
I0
sg4763
Nsa(dp4844
VUserName
p4845
V@@f52ccb64bafa743f391b94d0b06b5763d122996229f7569c231b231c2376f97e
p4846
sVCity
p4847
g44
sVDisplayName
p4848
g44
sVUniFriend
p4849
I0
sg4728
(dp4850
VUserName
p4851
V@03d5bfabaac7204e5799376a19c3238b55b2cc6ca01fcb91322f6d7cb8a099a5
p4852
sVRemarkPYQuanPin
p4853
g44
sVDisplayName
p4854
g44
sVKeyWord
p4855
g44
sVPYInitial
p4856
g44
sVUin
p4857
I0
sVMemberStatus
p4858
I0
sVPYQuanPin
p4859
g44
sVRemarkPYInitial
p4860
g44
sVNickName
p4861
VAlpha
p4862
sVAttrStatus
p4863
I33788197
ssVMemberList
p4864
(lp4865
g4850
a(dp4866
VUserName
p4867
V@d0f8397a3bd326ff58bea7b96ed76a203678cccaebc80e9c9afc73b74ba30e2a
p4868
sVRemarkPYQuanPin
p4869
g44
sVDisplayName
p4870
V\u674e\u54f2\u6587
p4871
sVKeyWord
p4872
g44
sVPYInitial
p4873
g44
sVUin
p4874
I0
sVMemberStatus
p4875
I0
sVPYQuanPin
p4876
g44
sVRemarkPYInitial
p4877
g44
sVNickName
p4878
V\u674e\u54f2\u6587
p4879
sVAttrStatus
p4880
I233573
sa(dp4881
VUserName
p4882
V@62a40170c5041cb99415da0b35d5478947d1fe02a8bd3b1a5bb1dcae46da962c
p4883
sVRemarkPYQuanPin
p4884
g44
sVDisplayName
p4885
V\u5929\u7f8e\u7238\u7238
p4886
sVKeyWord
p4887
g44
sVPYInitial
p4888
g44
sVUin
p4889
I0
sVMemberStatus
p4890
I0
sVPYQuanPin
p4891
g44
sVRemarkPYInitial
p4892
g44
sVNickName
p4893
V\u5f20\u5f66\u9f99
p4894
sVAttrStatus
p4895
I102501
sa(dp4896
VUserName
p4897
V@ca26d73201ef859c0a7f00ff902642b35892b9250abaa24df18c68cc468ac0ff
p4898
sVRemarkPYQuanPin
p4899
g44
sVDisplayName
p4900
V\u8d75\u96f7
p4901
sVKeyWord
p4902
g44
sVPYInitial
p4903
g44
sVUin
p4904
I0
sVMemberStatus
p4905
I0
sVPYQuanPin
p4906
g44
sVRemarkPYInitial
p4907
g44
sVNickName
p4908
V\u8d75\u96f7
p4909
sVAttrStatus
p4910
I103013
sasVPYQuanPin
p4911
V740woguaxiaofendui
p4912
sVRemarkPYInitial
p4913
g44
sVSex
p4914
I0
sVAppAccountFlag
p4915
I0
sVVerifyFlag
p4916
I0
sVProvince
p4917
g44
sVKeyWord
p4918
g44
sVRemarkName
p4919
g44
sVPYInitial
p4920
V740WGXFD
p4921
sVIsOwner
p4922
I1
sVChatRoomId
p4923
I0
sVHideInputBarFlag
p4924
I0
sVEncryChatRoomId
p4925
V@7867378539b32ecdbb366b6936386f5f
p4926
sVAttrStatus
p4927
I0
sVSnsFlag
p4928
I0
sVMemberCount
p4929
I4
sVOwnerUin
p4930
I0
sVAlias
p4931
g44
sVSignature
p4932
g44
sVContactFlag
p4933
I1
sVNickName
p4934
V740\u7a9d\u74dc\u5c0f\u5206\u961f
p4935
sVRemarkPYQuanPin
p4936
g44
sVHeadImgUrl
p4937
V/cgi-bin/mmwebwx-bin/webwxgetheadimg?seq=662634288&username=@@f52ccb64bafa743f391b94d0b06b5763d122996229f7569c231b231c2376f97e&skey=
p4938
sVUin
p4939
I0
sVStarFriend
p4940
I0
sVStatues
p4941
I1
sg4763
Nsa(dp4942
VUserName
p4943
V@@496a906ba3631097b1c124a2defb5a94d11edb53802891932c16a61c78016943
p4944
sVCity
p4945
g44
sVDisplayName
p4946
g44
sVUniFriend
p4947
I0
sg4728
(dp4948
g36
g31
sg37
g38
sg39
g38
sg40
I0
sg61
I0
sg41
(lp4949
sg43
g44
sg45
g44
sg71
I1424655402
sg47
I0
sg48
I0
sg49
g38
sg50
g38
sg51
g44
sg52
g44
sg53
I0
sg54
I0
sg55
I1
sg56
g38
sg57
I0
sg59
I16
sg60
I0
sg58
I0
sg62
g38
sg63
g64
sg65
I0
sg66
g67
sg68
g44
sg69
g70
sg46
I1
sg72
I0
sg73
I0
ssVMemberList
p4950
(lp4951
sVPYQuanPin
p4952
Vspanclassemojiemoji1f510span2020nianhanjialiuxiaospanclassemojiemoji1f510span
p4953
sVRemarkPYInitial
p4954
g44
sVSex
p4955
I0
sVAppAccountFlag
p4956
I0
sVVerifyFlag
p4957
I0
sVProvince
p4958
g44
sVKeyWord
p4959
g44
sVRemarkName
p4960
g44
sVPYInitial
p4961
VSPANCLASSEMOJIEMOJI1F510SPAN2020NHJLXSPANCLASSEMOJIEMOJI1F510SPAN
p4962
sVIsOwner
p4963
I0
sVChatRoomId
p4964
I0
sVHideInputBarFlag
p4965
I0
sVEncryChatRoomId
p4966
g44
sVAttrStatus
p4967
I0
sVSnsFlag
p4968
I0
sVMemberCount
p4969
I0
sVOwnerUin
p4970
I0
sVAlias
p4971
g44
sVSignature
p4972
g44
sVContactFlag
p4973
I3
sVNickName
p4974
V\U0001f5102020\u5e74\u5bd2\u5047\u7559\u6821\U0001f510
p4975
sVRemarkPYQuanPin
p4976
g44
sVHeadImgUrl
p4977
V/cgi-bin/mmwebwx-bin/webwxgetheadimg?seq=708768206&username=@@496a906ba3631097b1c124a2defb5a94d11edb53802891932c16a61c78016943&skey=@crypt_c4463405_3b7c724258920b3156a723070c0a22f1
p4978
sVUin
p4979
I0
sVStarFriend
p4980
I0
sVStatues
p4981
I1
sg4763
Nsa(dp4982
VUserName
p4983
V@@43edbc648334c1a3c29fefc5b5aef4ecd0ae4fc0267bacc47157b7f229e222a1
p4984
sVCity
p4985
g44
sVDisplayName
p4986
g44
sVUniFriend
p4987
I0
sg4728
(dp4988
g36
g31
sg37
g38
sg39
g38
sg40
I0
sg61
I0
sg41
(lp4989
sg43
g44
sg45
g44
sg71
I1424655402
sg47
I0
sg48
I0
sg49
g38
sg50
g38
sg51
g44
sg52
g44
sg53
I0
sg54
I0
sg55
I1
sg56
g38
sg57
I0
sg59
I16
sg60
I0
sg58
I0
sg62
g38
sg63
g64
sg65
I0
sg66
g67
sg68
g44
sg69
g70
sg46
I1
sg72
I0
sg73
I0
ssVMemberList
p4990
(lp4991
sVPYQuanPin
p4992
V20192020aizibingmukequn
p4993
sVRemarkPYInitial
p4994
g44
sVSex
p4995
I0
sVAppAccountFlag
p4996
I0
sVVerifyFlag
p4997
I0
sVProvince
p4998
g44
sVKeyWord
p4999
g44
sVRemarkName
p5000
g44
sVPYInitial
p5001
V20192020AZBMKQ
p5002
sVIsOwner
p5003
I0
sVChatRoomId
p5004
I0
sVHideInputBarFlag
p5005
I0
sVEncryChatRoomId
p5006
g44
sVAttrStatus
p5007
I0
sVSnsFlag
p5008
I0
sVMemberCount
p5009
I0
sVOwnerUin
p5010
I0
sVAlias
p5011
g44
sVSignature
p5012
g44
sVContactFlag
p5013
I1
sVNickName
p5014
V2019\u20142020\u827e\u6ecb\u75c5\u6155\u8bfe\u7fa4
p5015
sVRemarkPYQuanPin
p5016
g44
sVHeadImgUrl
p5017
V/cgi-bin/mmwebwx-bin/webwxgetheadimg?seq=708768816&username=@@43edbc648334c1a3c29fefc5b5aef4ecd0ae4fc0267bacc47157b7f229e222a1&skey=@crypt_c4463405_3b7c724258920b3156a723070c0a22f1
p5018
sVUin
p5019
I0
sVStarFriend
p5020
I0
sVStatues
p5021
I0
sg4763
Nsa(dp5022
VUserName
p5023
V@@3d4ba625e9d81e6eb3104353f5ca88ad74ddaa37904f5406d6c041f781ac6c7f
p5024
sVCity
p5025
g44
sVDisplayName
p5026
g44
sVUniFriend
p5027
I0
sg4728
(dp5028
VUserName
p5029
V@03d5bfabaac7204e5799376a19c3238b55b2cc6ca01fcb91322f6d7cb8a099a5
p5030
sVRemarkPYQuanPin
p5031
g44
sVDisplayName
p5032
g44
sVKeyWord
p5033
g44
sVPYInitial
p5034
g44
sVUin
p5035
I0
sVMemberStatus
p5036
I0
sVPYQuanPin
p5037
g44
sVRemarkPYInitial
p5038
g44
sVNickName
p5039
VAlpha
p5040
sVAttrStatus
p5041
I33788197
ssVMemberList
p5042
(lp5043
(dp5044
VUserName
p5045
V@9c046d88f88e7a301debce7c1f72cc80d99e705199dda78fca5a3a37fde14236
p5046
sVRemarkPYQuanPin
p5047
g44
sVDisplayName
p5048
g44
sVKeyWord
p5049
g44
sVPYInitial
p5050
g44
sVUin
p5051
I0
sVMemberStatus
p5052
I0
sVPYQuanPin
p5053
g44
sVRemarkPYInitial
p5054
g44
sVNickName
p5055
V\u8096\u4f1f\u534e
p5056
sVAttrStatus
p5057
I4129
sa(dp5058
VUserName
p5059
V@cd8544b47d5cb9f5058562f2db1eea6806026aead6ea72ccda08d0df774038fc
p5060
sVRemarkPYQuanPin
p5061
g44
sVDisplayName
p5062
g44
sVKeyWord
p5063
g44
sVPYInitial
p5064
g44
sVUin
p5065
I0
sVMemberStatus
p5066
I0
sVPYQuanPin
p5067
g44
sVRemarkPYInitial
p5068
g44
sVNickName
p5069
V\u601d\u601d
p5070
sVAttrStatus
p5071
I102913
sa(dp5072
VUserName
p5073
V@384ffe7bd90af4a0ea86cd2b6f7a93a8e0b98ecd5ef69933fad1fb4a27807364
p5074
sVRemarkPYQuanPin
p5075
g44
sVDisplayName
p5076
g44
sVKeyWord
p5077
g44
sVPYInitial
p5078
g44
sVUin
p5079
I0
sVMemberStatus
p5080
I0
sVPYQuanPin
p5081
g44
sVRemarkPYInitial
p5082
g44
sVNickName
p5083
V\u6c64\u6c64
p5084
sVAttrStatus
p5085
I135205
sa(dp5086
VUserName
p5087
V@ffcf3b0abe809e05f4571f7675f034a569b5746bc8cc11eab9fc215ec6bffe39
p5088
sVRemarkPYQuanPin
p5089
g44
sVDisplayName
p5090
g44
sVKeyWord
p5091
g44
sVPYInitial
p5092
g44
sVUin
p5093
I0
sVMemberStatus
p5094
I0
sVPYQuanPin
p5095
g44
sVRemarkPYInitial
p5096
g44
sVNickName
p5097
V\u7287\u7287
p5098
sVAttrStatus
p5099
I135205
sa(dp5100
VUserName
p5101
V@87d1fa81d0d53536d57b35d1accd4bc326fa046455c61fff90542ff15012482b
p5102
sVRemarkPYQuanPin
p5103
g44
sVDisplayName
p5104
g44
sVKeyWord
p5105
g44
sVPYInitial
p5106
g44
sVUin
p5107
I0
sVMemberStatus
p5108
I0
sVPYQuanPin
p5109
g44
sVRemarkPYInitial
p5110
g44
sVNickName
p5111
V\u5e7f\u5dde\u670d\u9970(=^\uff65^=)\u91cd\u6e20\u5206\u5e97
p5112
sVAttrStatus
p5113
I102525
sa(dp5114
VUserName
p5115
V@6ca8743f83ff0d9877e5a1cc59709cc3f13a1040be2c1421bf259cd42a614d4b
p5116
sVRemarkPYQuanPin
p5117
g44
sVDisplayName
p5118
g44
sVKeyWord
p5119
g44
sVPYInitial
p5120
g44
sVUin
p5121
I0
sVMemberStatus
p5122
I0
sVPYQuanPin
p5123
g44
sVRemarkPYInitial
p5124
g44
sVNickName
p5125
V\u601d\u601d
p5126
sVAttrStatus
p5127
I4385
sa(dp5128
VUserName
p5129
V@cabdb6df377d1111369f9548545f49ddbbb868a222cd97bb9c72a571d92abb6d
p5130
sVRemarkPYQuanPin
p5131
g44
sVDisplayName
p5132
g44
sVKeyWord
p5133
g44
sVPYInitial
p5134
g44
sVUin
p5135
I0
sVMemberStatus
p5136
I0
sVPYQuanPin
p5137
g44
sVRemarkPYInitial
p5138
g44
sVNickName
p5139
V\u66fe\u5609\u51a0
p5140
sVAttrStatus
p5141
I4133
sa(dp5142
VUserName
p5143
V@524493eb12eef07d848ca3c75077b5efc3748a81017cf821a6270f5c9489546a
p5144
sVRemarkPYQuanPin
p5145
g44
sVDisplayName
p5146
g44
sVKeyWord
p5147
g44
sVPYInitial
p5148
g44
sVUin
p5149
I0
sVMemberStatus
p5150
I0
sVPYQuanPin
p5151
g44
sVRemarkPYInitial
p5152
g44
sVNickName
p5153
V\u5609\u5609
p5154
sVAttrStatus
p5155
I98597
sa(dp5156
VUserName
p5157
V@b43a992c0b7dd8bd71b6adf2d8437653708a1ba04a491cfadbc9fb9f86c5f26a
p5158
sVRemarkPYQuanPin
p5159
g44
sVDisplayName
p5160
g44
sVKeyWord
p5161
g44
sVPYInitial
p5162
g44
sVUin
p5163
I0
sVMemberStatus
p5164
I0
sVPYQuanPin
p5165
g44
sVRemarkPYInitial
p5166
g44
sVNickName
p5167
V\u5c0f\u7fc0
p5168
sVAttrStatus
p5169
I4133
sa(dp5170
VUserName
p5171
V@aebf4a5f20ff24da3614ad10c4cf53ad952820dff371157fb68d41b2c43fd158
p5172
sVRemarkPYQuanPin
p5173
g44
sVDisplayName
p5174
g44
sVKeyWord
p5175
g44
sVPYInitial
p5176
g44
sVUin
p5177
I0
sVMemberStatus
p5178
I0
sVPYQuanPin
p5179
g44
sVRemarkPYInitial
p5180
g44
sVNickName
p5181
V\u4e58\u98ce\u7834\u6d6a
p5182
sVAttrStatus
p5183
I69733
sa(dp5184
VUserName
p5185
V@aec3fc3ee0e19959a3f214b525deba19db5c61854255bec4e196283bfa3f22da
p5186
sVRemarkPYQuanPin
p5187
g44
sVDisplayName
p5188
g44
sVKeyWord
p5189
g44
sVPYInitial
p5190
g44
sVUin
p5191
I0
sVMemberStatus
p5192
I0
sVPYQuanPin
p5193
g44
sVRemarkPYInitial
p5194
g44
sVNickName
p5195
V\u8096\u7fbd\u7fc0
p5196
sVAttrStatus
p5197
I6177
sa(dp5198
VUserName
p5199
V@0e10aa556143994566f2450a4a9eaa7be92aab520070383141dbee16aa9e294c
p5200
sVRemarkPYQuanPin
p5201
g44
sVDisplayName
p5202
g44
sVKeyWord
p5203
g44
sVPYInitial
p5204
g44
sVUin
p5205
I0
sVMemberStatus
p5206
I0
sVPYQuanPin
p5207
g44
sVRemarkPYInitial
p5208
g44
sVNickName
p5209
VDevil   or   Angel    \u598d
p5210
sVAttrStatus
p5211
I102437
sag5028
asVPYQuanPin
p5212
Vjiaren
p5213
sVRemarkPYInitial
p5214
g44
sVSex
p5215
I0
sVAppAccountFlag
p5216
I0
sVVerifyFlag
p5217
I0
sVProvince
p5218
g44
sVKeyWord
p5219
g44
sVRemarkName
p5220
g44
sVPYInitial
p5221
VJR
p5222
sVIsOwner
p5223
I0
sVChatRoomId
p5224
I0
sVContactType
p5225
I0
sVHideInputBarFlag
p5226
I0
sVEncryChatRoomId
p5227
g44
sVAttrStatus
p5228
I0
sVSnsFlag
p5229
I0
sVMemberCount
p5230
I13
sVOwnerUin
p5231
I0
sVAlias
p5232
g44
sVSignature
p5233
g44
sVContactFlag
p5234
I3
sVNickName
p5235
V\u5bb6\u4eba
p5236
sVChatRoomOwner
p5237
V@9c046d88f88e7a301debce7c1f72cc80d99e705199dda78fca5a3a37fde14236
p5238
sVRemarkPYQuanPin
p5239
g44
sVHeadImgUrl
p5240
V/cgi-bin/mmwebwx-bin/webwxgetheadimg?seq=0&username=@@3d4ba625e9d81e6eb3104353f5ca88ad74ddaa37904f5406d6c041f781ac6c7f&skey=@crypt_c4463405_3b7c724258920b3156a723070c0a22f1
p5241
sVUin
p5242
I0
sVStarFriend
p5243
I0
sVHeadImgUpdateFlag
p5244
I1
sVStatues
p5245
I0
sg4763
NsasS'nickName'
p5246
g67
sS'mpList'
p5247
(lp5248
(dp5249
VUserName
p5250
V@79eb9688b057b60d5e6c72c7fd4470fe
p5251
sVCity
p5252
V\u671d\u9633
p5253
sVDisplayName
p5254
g44
sVUniFriend
p5255
I0
sVMemberList
p5256
(lp5257
sVPYQuanPin
p5258
VnulideLorre
p5259
sVRemarkPYInitial
p5260
g44
sVUin
p5261
I0
sVAppAccountFlag
p5262
I0
sVVerifyFlag
p5263
I24
sVProvince
p5264
V\u5317\u4eac
p5265
sVKeyWord
p5266
Vgh_
p5267
sVRemarkName
p5268
g44
sVPYInitial
p5269
VNLDLORRE
p5270
sVChatRoomId
p5271
I0
sVIsOwner
p5272
I0
sVHideInputBarFlag
p5273
I0
sVEncryChatRoomId
p5274
g44
sVAttrStatus
p5275
I0
sVSnsFlag
p5276
I0
sVMemberCount
p5277
I0
sVOwnerUin
p5278
I0
sVAlias
p5279
g44
sVSignature
p5280
V\u6f2b\u5a01DC\u5165\u95e8\u6307\u5357\uff0c\u79d1\u5e7b\u52a8\u4f5c\u7535\u5f71\u7231\u597d\u8005
p5281
sVContactFlag
p5282
I3
sVNickName
p5283
V\u52aa\u529b\u7684Lorre
p5284
sVRemarkPYQuanPin
p5285
g44
sVHeadImgUrl
p5286
V/cgi-bin/mmwebwx-bin/webwxgeticon?seq=681256914&username=@79eb9688b057b60d5e6c72c7fd4470fe&skey=@crypt_c4463405_3b7c724258920b3156a723070c0a22f1
p5287
sVSex
p5288
I0
sVStarFriend
p5289
I0
sVStatues
p5290
I0
sa(dp5291
VUserName
p5292
V@1e538c125c4740d9ec9083b577a02d26
p5293
sVCity
p5294
V\u6df1\u5733
p5295
sVDisplayName
p5296
g44
sVUniFriend
p5297
I0
sVMemberList
p5298
(lp5299
sVPYQuanPin
p5300
Vsudaxiaoyuan
p5301
sVRemarkPYInitial
p5302
g44
sVUin
p5303
I0
sVAppAccountFlag
p5304
I0
sVVerifyFlag
p5305
I24
sVProvince
p5306
V\u5e7f\u4e1c
p5307
sVKeyWord
p5308
Vgh_
p5309
sVRemarkName
p5310
g44
sVPYInitial
p5311
VSDXY
p5312
sVChatRoomId
p5313
I0
sVIsOwner
p5314
I0
sVHideInputBarFlag
p5315
I0
sVEncryChatRoomId
p5316
g44
sVAttrStatus
p5317
I0
sVSnsFlag
p5318
I0
sVMemberCount
p5319
I0
sVOwnerUin
p5320
I0
sVAlias
p5321
g44
sVSignature
p5322
V\u63d0\u4f9b\u6821\u56ed\u6d17\u8863\u3001\u76f4\u996e\u6c34\u3001\u6dcb\u6d74\u7b49\u670d\u52a1\uff0c\u505a\u4f60\u6700\u8d34\u5fc3\u7684\u6821\u56ed\u751f\u6d3b\u5c0f\u7ba1\u5bb6\uff0c\u8fd8\u6709\u5404\u79cd\u798f\u5229\u4e0d\u5b9a\u671f\u653e\u9001\u5662\u3002
p5323
sVContactFlag
p5324
I1
sVNickName
p5325
V\u82cf\u6253\u6821\u56ed
p5326
sVRemarkPYQuanPin
p5327
g44
sVHeadImgUrl
p5328
V/cgi-bin/mmwebwx-bin/webwxgeticon?seq=681216022&username=@1e538c125c4740d9ec9083b577a02d26&skey=@crypt_c4463405_3b7c724258920b3156a723070c0a22f1
p5329
sVSex
p5330
I0
sVStarFriend
p5331
I0
sVStatues
p5332
I0
sa(dp5333
VUserName
p5334
V@882de396f44e69d016e73c5e71ba7556
p5335
sVCity
p5336
V\u54c8\u5c14\u6ee8
p5337
sVDisplayName
p5338
g44
sVUniFriend
p5339
I0
sVMemberList
p5340
(lp5341
sVPYQuanPin
p5342
Vhaerbinshinagangoujiutianjumuyingcheng
p5343
sVRemarkPYInitial
p5344
g44
sVUin
p5345
I0
sVAppAccountFlag
p5346
I0
sVVerifyFlag
p5347
I24
sVProvince
p5348
V\u9ed1\u9f99\u6c5f
p5349
sVKeyWord
p5350
Vgh_
p5351
sVRemarkName
p5352
g44
sVPYInitial
p5353
VHEBSNGOJTJMYC
p5354
sVChatRoomId
p5355
I0
sVIsOwner
p5356
I0
sVHideInputBarFlag
p5357
I0
sVEncryChatRoomId
p5358
g44
sVAttrStatus
p5359
I0
sVSnsFlag
p5360
I0
sVMemberCount
p5361
I0
sVOwnerUin
p5362
I0
sVAlias
p5363
g44
sVSignature
p5364
V\u5f71\u9662\u4ea7\u54c1\u4ecb\u7ecd\u4e0e\u5f71\u8baf\u4ecb\u7ecd
p5365
sVContactFlag
p5366
I3
sVNickName
p5367
V\u54c8\u5c14\u6ee8\u5e02\u5357\u5c97\u533a\u4e5d\u5929\u5de8\u5e55\u5f71\u57ce
p5368
sVRemarkPYQuanPin
p5369
g44
sVHeadImgUrl
p5370
V/cgi-bin/mmwebwx-bin/webwxgeticon?seq=681258953&username=@882de396f44e69d016e73c5e71ba7556&skey=@crypt_c4463405_3b7c724258920b3156a723070c0a22f1
p5371
sVSex
p5372
I0
sVStarFriend
p5373
I0
sVStatues
p5374
I0
sa(dp5375
VUserName
p5376
V@27610182025747ad8703ac4327c40821
p5377
sVCity
p5378
V\u6e1d\u5317
p5379
sVDisplayName
p5380
g44
sVUniFriend
p5381
I0
sVMemberList
p5382
(lp5383
sVPYQuanPin
p5384
Vruanjiananzhuangguanjia
p5385
sVRemarkPYInitial
p5386
g44
sVUin
p5387
I0
sVAppAccountFlag
p5388
I0
sVVerifyFlag
p5389
I24
sVProvince
p5390
V\u91cd\u5e86
p5391
sVKeyWord
p5392
Vgh_
p5393
sVRemarkName
p5394
g44
sVPYInitial
p5395
VRJAZGJ
p5396
sVChatRoomId
p5397
I0
sVIsOwner
p5398
I0
sVHideInputBarFlag
p5399
I0
sVEncryChatRoomId
p5400
g44
sVAttrStatus
p5401
I0
sVSnsFlag
p5402
I0
sVMemberCount
p5403
I0
sVOwnerUin
p5404
I0
sVAlias
p5405
g44
sVSignature
p5406
V\u514d\u8d39\u53d1\u5e03\u5404\u7c7b\u8f6f\u4ef6\u5b89\u88c5\u5305\u548c\u5b89\u88c5\u6559\u7a0b\uff0c\u5e76\u63d0\u4f9b\u8f6f\u4ef6\u5b89\u88c5\u6280\u672f\u652f\u6301\u3002\u7ba1\u5bb6\u56e2\u961f\u5b98\u65b9\u7f51\u7ad9\uff1awww.gjtd666.com
p5407
sVContactFlag
p5408
I3
sVNickName
p5409
V\u8f6f\u4ef6\u5b89\u88c5\u7ba1\u5bb6
p5410
sVRemarkPYQuanPin
p5411
g44
sVHeadImgUrl
p5412
V/cgi-bin/mmwebwx-bin/webwxgeticon?seq=681289271&username=@27610182025747ad8703ac4327c40821&skey=@crypt_c4463405_3b7c724258920b3156a723070c0a22f1
p5413
sVSex
p5414
I0
sVStarFriend
p5415
I0
sVStatues
p5416
I0
sa(dp5417
VUserName
p5418
V@55bd306fcc1f9b6708d2b6615f9ba231
p5419
sVCity
p5420
V\u54c8\u5c14\u6ee8
p5421
sVDisplayName
p5422
g44
sVUniFriend
p5423
I0
sVMemberList
p5424
(lp5425
sVPYQuanPin
p5426
Vheidajiaowu
p5427
sVRemarkPYInitial
p5428
g44
sVUin
p5429
I0
sVAppAccountFlag
p5430
I0
sVVerifyFlag
p5431
I24
sVProvince
p5432
V\u9ed1\u9f99\u6c5f
p5433
sVKeyWord
p5434
Vgh_
p5435
sVRemarkName
p5436
g44
sVPYInitial
p5437
VHDJW
p5438
sVChatRoomId
p5439
I0
sVIsOwner
p5440
I0
sVHideInputBarFlag
p5441
I0
sVEncryChatRoomId
p5442
g44
sVAttrStatus
p5443
I0
sVSnsFlag
p5444
I0
sVMemberCount
p5445
I0
sVOwnerUin
p5446
I0
sVAlias
p5447
g44
sVSignature
p5448
V\u201c\u9ed1\u5927\u6559\u52a1\u201d\u4e3a\u9ed1\u9f99\u6c5f\u5927\u5b66\u6559\u52a1\u5904\u5b98\u65b9\u516c\u4f17\u53f7\uff0c\u65e8\u5728\u670d\u52a1\u5168\u6821\u5e08\u751f\uff0c\u63d0\u4f9b\u6559\u5b66\u8fd0\u884c\u3001\u5b66\u4e60\u6307\u5357\u3001\u6559\u52a1\u7ba1\u7406\u7b49\u4e0e\u672c\u79d1\u6559\u5b66\u76f8\u5173\u7684\u4fe1\u606f\u63a8\u9001\u3001\u67e5\u8be2\u3001\u4e92\u52a8\u7b49\u670d\u52a1\u3002\u6253\u9020\u4e00\u4e2a\u9ed1\u5927\u4eba\u81ea\u5df1\u7684\u201c\u4e92\u8054\u7f51+\u201d\u73af\u5883\u4e0b\u7684\u201c\u5fae\u6559\u52a1\u201d\u5e73\u53f0\u3002
p5449
sVContactFlag
p5450
I3
sVNickName
p5451
V\u9ed1\u5927\u6559\u52a1
p5452
sVRemarkPYQuanPin
p5453
g44
sVHeadImgUrl
p5454
V/cgi-bin/mmwebwx-bin/webwxgeticon?seq=662647141&username=@55bd306fcc1f9b6708d2b6615f9ba231&skey=@crypt_c4463405_3b7c724258920b3156a723070c0a22f1
p5455
sVSex
p5456
I0
sVStarFriend
p5457
I0
sVStatues
p5458
I0
sa(dp5459
VUserName
p5460
V@7de6a9db8ae06c2c9cd426de6d3bd231
p5461
sVCity
p5462
V\u5f90\u5dde
p5463
sVDisplayName
p5464
g44
sVUniFriend
p5465
I0
sVMemberList
p5466
(lp5467
sVPYQuanPin
p5468
Vmaxiaobian
p5469
sVRemarkPYInitial
p5470
g44
sVUin
p5471
I0
sVAppAccountFlag
p5472
I0
sVVerifyFlag
p5473
I8
sVProvince
p5474
V\u6c5f\u82cf
p5475
sVKeyWord
p5476
Vgh_
p5477
sVRemarkName
p5478
g44
sVPYInitial
p5479
VMXB
p5480
sVChatRoomId
p5481
I0
sVIsOwner
p5482
I0
sVHideInputBarFlag
p5483
I0
sVEncryChatRoomId
p5484
g44
sVAttrStatus
p5485
I0
sVSnsFlag
p5486
I0
sVMemberCount
p5487
I0
sVOwnerUin
p5488
I0
sVAlias
p5489
g44
sVSignature
p5490
V\u7ed9\u7a0b\u5e8f\u5458\u548c\u7f16\u7a0b\u7231\u597d\u8005\u5206\u4eab\u8ba1\u7b97\u673a\u7f16\u7a0b\u7535\u5b50\u4e66\u4ee5\u53ca\u76f8\u5173\u7684\u5b66\u4e60\u8d44\u6e90
p5491
sVContactFlag
p5492
I3
sVNickName
p5493
V\u7801\u5c0f\u8fab
p5494
sVRemarkPYQuanPin
p5495
g44
sVHeadImgUrl
p5496
V/cgi-bin/mmwebwx-bin/webwxgeticon?seq=681291098&username=@7de6a9db8ae06c2c9cd426de6d3bd231&skey=@crypt_c4463405_3b7c724258920b3156a723070c0a22f1
p5497
sVSex
p5498
I0
sVStarFriend
p5499
I0
sVStatues
p5500
I0
sa(dp5501
VUserName
p5502
V@83db4914756da387f3f8976ec559bcba
p5503
sVCity
p5504
V\u6b66\u6c49
p5505
sVDisplayName
p5506
g44
sVUniFriend
p5507
I0
sVMemberList
p5508
(lp5509
sVPYQuanPin
p5510
VPayforMoney
p5511
sVRemarkPYInitial
p5512
g44
sVUin
p5513
I0
sVAppAccountFlag
p5514
I0
sVVerifyFlag
p5515
I8
sVProvince
p5516
V\u6e56\u5317
p5517
sVKeyWord
p5518
Vgh_
p5519
sVRemarkName
p5520
g44
sVPYInitial
p5521
VPAYFORMONEY
p5522
sVChatRoomId
p5523
I0
sVIsOwner
p5524
I0
sVHideInputBarFlag
p5525
I0
sVEncryChatRoomId
p5526
g44
sVAttrStatus
p5527
I0
sVSnsFlag
p5528
I0
sVMemberCount
p5529
I0
sVOwnerUin
p5530
I0
sVAlias
p5531
g44
sVSignature
p5532
V\u5206\u4eab\u4e0e\u70ed\u7231
p5533
sVContactFlag
p5534
I3
sVNickName
p5535
VPay for Money
p5536
sVRemarkPYQuanPin
p5537
g44
sVHeadImgUrl
p5538
V/cgi-bin/mmwebwx-bin/webwxgeticon?seq=681264299&username=@83db4914756da387f3f8976ec559bcba&skey=@crypt_c4463405_3b7c724258920b3156a723070c0a22f1
p5539
sVSex
p5540
I0
sVStarFriend
p5541
I0
sVStatues
p5542
I0
sa(dp5543
VUserName
p5544
V@ebfa76f18a8141f636d255f0b65a29f7
p5545
sVCity
p5546
V\u6b66\u6c49
p5547
sVDisplayName
p5548
g44
sVUniFriend
p5549
I0
sVMemberList
p5550
(lp5551
sVPYQuanPin
p5552
Vbaiwen
p5553
sVRemarkPYInitial
p5554
g44
sVUin
p5555
I0
sVAppAccountFlag
p5556
I0
sVVerifyFlag
p5557
I24
sVProvince
p5558
V\u6e56\u5317
p5559
sVKeyWord
p5560
Vgh_
p5561
sVRemarkName
p5562
g44
sVPYInitial
p5563
VBW
p5564
sVChatRoomId
p5565
I0
sVIsOwner
p5566
I0
sVHideInputBarFlag
p5567
I0
sVEncryChatRoomId
p5568
g44
sVAttrStatus
p5569
I0
sVSnsFlag
p5570
I0
sVMemberCount
p5571
I0
sVOwnerUin
p5572
I0
sVAlias
p5573
g44
sVSignature
p5574
V\u4e0d\u5ba2\u89c2 \u771f\u4f53\u9a8c \u7a0d\u5e26\u4e3b\u89c2\u7684\u79d1\u6280\u77e5\u8bc6\u95ee\u7b54\u5206\u4eab
p5575
sVContactFlag
p5576
I3
sVNickName
p5577
V\u767d\u95ee
p5578
sVRemarkPYQuanPin
p5579
g44
sVHeadImgUrl
p5580
V/cgi-bin/mmwebwx-bin/webwxgeticon?seq=681312190&username=@ebfa76f18a8141f636d255f0b65a29f7&skey=@crypt_c4463405_3b7c724258920b3156a723070c0a22f1
p5581
sVSex
p5582
I0
sVStarFriend
p5583
I0
sVStatues
p5584
I0
sa(dp5585
VUserName
p5586
V@f8dce5e7fe796d0a7269ad79d5b76325
p5587
sVCity
p5588
V\u5357\u4eac
p5589
sVDisplayName
p5590
g44
sVUniFriend
p5591
I0
sVMemberList
p5592
(lp5593
sVPYQuanPin
p5594
VCodeSheep
p5595
sVRemarkPYInitial
p5596
g44
sVUin
p5597
I0
sVAppAccountFlag
p5598
I0
sVVerifyFlag
p5599
I8
sVProvince
p5600
V\u6c5f\u82cf
p5601
sVKeyWord
p5602
Vgh_
p5603
sVRemarkName
p5604
g44
sVPYInitial
p5605
VCODESHEEP
p5606
sVChatRoomId
p5607
I0
sVIsOwner
p5608
I0
sVHideInputBarFlag
p5609
I0
sVEncryChatRoomId
p5610
g44
sVAttrStatus
p5611
I0
sVSnsFlag
p5612
I0
sVMemberCount
p5613
I0
sVOwnerUin
p5614
I0
sVAlias
p5615
g44
sVSignature
p5616
V\u4e00\u53ea\u7231\u6280\u672f\u7684\u7a0b\u5e8f\u7f8a\uff0c\u60f3\u628a\u5206\u4eab\u53d8\u6210\u4e00\u79cd\u4e60\u60ef\uff01
p5617
sVContactFlag
p5618
I3
sVNickName
p5619
VCodeSheep
p5620
sVRemarkPYQuanPin
p5621
g44
sVHeadImgUrl
p5622
V/cgi-bin/mmwebwx-bin/webwxgeticon?seq=681318844&username=@f8dce5e7fe796d0a7269ad79d5b76325&skey=@crypt_c4463405_3b7c724258920b3156a723070c0a22f1
p5623
sVSex
p5624
I0
sVStarFriend
p5625
I0
sVStatues
p5626
I0
sa(dp5627
VUserName
p5628
V@53a0034d3973630f2bc31f929222628a
p5629
sVCity
p5630
V\u6d66\u4e1c\u65b0\u533a
p5631
sVDisplayName
p5632
g44
sVUniFriend
p5633
I0
sVMemberList
p5634
(lp5635
sVPYQuanPin
p5636
VLeetCodelikou
p5637
sVRemarkPYInitial
p5638
g44
sVUin
p5639
I0
sVAppAccountFlag
p5640
I0
sVVerifyFlag
p5641
I24
sVProvince
p5642
V\u4e0a\u6d77
p5643
sVKeyWord
p5644
Vgh_
p5645
sVRemarkName
p5646
g44
sVPYInitial
p5647
VLEETCODELK
p5648
sVChatRoomId
p5649
I0
sVIsOwner
p5650
I0
sVHideInputBarFlag
p5651
I0
sVEncryChatRoomId
p5652
g44
sVAttrStatus
p5653
I0
sVSnsFlag
p5654
I0
sVMemberCount
p5655
I0
sVOwnerUin
p5656
I0
sVAlias
p5657
g44
sVSignature
p5658
V\u638c\u63e1\u79d1\u6280\u884c\u4e1a\u70ed\u70b9\u52a8\u5411\uff0c\u4e30\u5bcc\u7684\u5728\u7ebf\u6280\u672f\u8d44\u6e90\uff0c\u5e2e\u52a9\u5b66\u4e60\u548c\u63d0\u5347\u4e13\u4e1a\u6280\u672f\u6c34\u5e73\u3002
p5659
sVContactFlag
p5660
I1
sVNickName
p5661
VLeetCode\u529b\u6263
p5662
sVRemarkPYQuanPin
p5663
g44
sVHeadImgUrl
p5664
V/cgi-bin/mmwebwx-bin/webwxgeticon?seq=681204440&username=@53a0034d3973630f2bc31f929222628a&skey=@crypt_c4463405_3b7c724258920b3156a723070c0a22f1
p5665
sVSex
p5666
I0
sVStarFriend
p5667
I0
sVStatues
p5668
I0
sa(dp5669
VUserName
p5670
V@e2baa71f11913a1e12f89227d23da489
p5671
sVCity
p5672
V\u5e7f\u5dde
p5673
sVDisplayName
p5674
g44
sVUniFriend
p5675
I0
sVMemberList
p5676
(lp5677
sVPYQuanPin
p5678
VshuanggePower
p5679
sVRemarkPYInitial
p5680
g44
sVUin
p5681
I0
sVAppAccountFlag
p5682
I0
sVVerifyFlag
p5683
I24
sVProvince
p5684
V\u5e7f\u4e1c
p5685
sVKeyWord
p5686
Vgh_
p5687
sVRemarkName
p5688
g44
sVPYInitial
p5689
VSGPOWER
p5690
sVChatRoomId
p5691
I0
sVIsOwner
p5692
I0
sVHideInputBarFlag
p5693
I0
sVEncryChatRoomId
p5694
g44
sVAttrStatus
p5695
I0
sVSnsFlag
p5696
I0
sVMemberCount
p5697
I0
sVOwnerUin
p5698
I0
sVAlias
p5699
g44
sVSignature
p5700
V\u723d\u54e5\uff0c\u4e00\u4e2a\u8bfb\u4e86\u7269\u6d41\u7ba1\u7406\uff0c\u6bd5\u4e1a\u5f53\u4e86\u91d1\u878d\u6c11\u5de5\uff0c\u6700\u540e\u6210\u4e86\u65b0\u5a92\u4f53\u521b\u4e1a\u516c\u53f8CEO\u7684\u6587\u79d1\u7537\uff0c\u6301\u7eed\u7684\u7cbe\u8fdb\u4e3b\u4e49\u8005
p5701
sVContactFlag
p5702
I3
sVNickName
p5703
V\u723d\u54e5Power
p5704
sVRemarkPYQuanPin
p5705
g44
sVHeadImgUrl
p5706
V/cgi-bin/mmwebwx-bin/webwxgeticon?seq=681325474&username=@e2baa71f11913a1e12f89227d23da489&skey=@crypt_c4463405_3b7c724258920b3156a723070c0a22f1
p5707
sVSex
p5708
I0
sVStarFriend
p5709
I0
sVStatues
p5710
I0
sa(dp5711
VUserName
p5712
V@3582dd09bf61725daf0bf3b992c5120b
p5713
sVCity
p5714
V\u54c8\u5c14\u6ee8
p5715
sVDisplayName
p5716
g44
sVUniFriend
p5717
I0
sVMemberList
p5718
(lp5719
sVPYQuanPin
p5720
Vheilongjiangdaxuetushuguanfuwuhao
p5721
sVRemarkPYInitial
p5722
g44
sVUin
p5723
I0
sVAppAccountFlag
p5724
I0
sVVerifyFlag
p5725
I24
sVProvince
p5726
V\u9ed1\u9f99\u6c5f
p5727
sVKeyWord
p5728
Vgh_
p5729
sVRemarkName
p5730
g44
sVPYInitial
p5731
VHLJDXTSGFWH
p5732
sVChatRoomId
p5733
I0
sVIsOwner
p5734
I0
sVHideInputBarFlag
p5735
I0
sVEncryChatRoomId
p5736
g44
sVAttrStatus
p5737
I0
sVSnsFlag
p5738
I0
sVMemberCount
p5739
I0
sVOwnerUin
p5740
I0
sVAlias
p5741
g44
sVSignature
p5742
V\u53d1\u5e03\u56fe\u4e66\u9986\u516c\u5171\u4fe1\u606f\uff0c\u6700\u65b0\u8d44\u8baf\uff0c\u63d0\u4f9b\u56fe\u4e66\u8d85\u671f\u63d0\u9192\u3001\u50ac\u8fd8\u548c\u9884\u7ea6\u5230\u4e66\u63d0\u9192\u7b49\u3002
p5743
sVContactFlag
p5744
I1
sVNickName
p5745
V\u9ed1\u9f99\u6c5f\u5927\u5b66\u56fe\u4e66\u9986\u670d\u52a1\u53f7
p5746
sVRemarkPYQuanPin
p5747
g44
sVHeadImgUrl
p5748
V/cgi-bin/mmwebwx-bin/webwxgeticon?seq=681217853&username=@3582dd09bf61725daf0bf3b992c5120b&skey=@crypt_c4463405_3b7c724258920b3156a723070c0a22f1
p5749
sVSex
p5750
I0
sVStarFriend
p5751
I0
sVStatues
p5752
I0
sa(dp5753
VUserName
p5754
V@0da67a95dcc49f51e2c677391a5bd60f
p5755
sVCity
p5756
V\u54c8\u5c14\u6ee8
p5757
sVDisplayName
p5758
g44
sVUniFriend
p5759
I0
sVMemberList
p5760
(lp5761
sVPYQuanPin
p5762
Vhaerbinaimeiguojijumuyingcheng
p5763
sVRemarkPYInitial
p5764
g44
sVUin
p5765
I0
sVAppAccountFlag
p5766
I0
sVVerifyFlag
p5767
I24
sVProvince
p5768
V\u9ed1\u9f99\u6c5f
p5769
sVKeyWord
p5770
Vgh_
p5771
sVRemarkName
p5772
g44
sVPYInitial
p5773
VHEBAMGJJMYC
p5774
sVChatRoomId
p5775
I0
sVIsOwner
p5776
I0
sVHideInputBarFlag
p5777
I0
sVEncryChatRoomId
p5778
g44
sVAttrStatus
p5779
I0
sVSnsFlag
p5780
I0
sVMemberCount
p5781
I0
sVOwnerUin
p5782
I0
sVAlias
p5783
g44
sVSignature
p5784
V\u4f01\u4e1a\u4ecb\u7ecd\uff0c\u5f71\u7247\u4ecb\u7ecd\uff0c\u6d3b\u52a8
p5785
sVContactFlag
p5786
I1
sVNickName
p5787
V\u54c8\u5c14\u6ee8\u827e\u7f8e\u56fd\u9645\u5de8\u5e55\u5f71\u57ce
p5788
sVRemarkPYQuanPin
p5789
g44
sVHeadImgUrl
p5790
V/cgi-bin/mmwebwx-bin/webwxgeticon?seq=681260089&username=@0da67a95dcc49f51e2c677391a5bd60f&skey=@crypt_c4463405_3b7c724258920b3156a723070c0a22f1
p5791
sVSex
p5792
I0
sVStarFriend
p5793
I0
sVStatues
p5794
I0
sa(dp5795
VUserName
p5796
V@1915fc9b70d220a7db53f92d9d56a91f
p5797
sVCity
p5798
V\u5e7f\u5dde
p5799
sVDisplayName
p5800
g44
sVUniFriend
p5801
I0
sVMemberList
p5802
(lp5803
sVPYQuanPin
p5804
Vdafeimazi
p5805
sVRemarkPYInitial
p5806
g44
sVUin
p5807
I0
sVAppAccountFlag
p5808
I0
sVVerifyFlag
p5809
I8
sVProvince
p5810
V\u5e7f\u4e1c
p5811
sVKeyWord
p5812
Vgh_
p5813
sVRemarkName
p5814
g44
sVPYInitial
p5815
VDFMZ
p5816
sVChatRoomId
p5817
I0
sVIsOwner
p5818
I0
sVHideInputBarFlag
p5819
I0
sVEncryChatRoomId
p5820
g44
sVAttrStatus
p5821
I0
sVSnsFlag
p5822
I0
sVMemberCount
p5823
I0
sVOwnerUin
p5824
I0
sVAlias
p5825
g44
sVSignature
p5826
V\u5728\u56fd\u5185\u77e5\u540d\u4e92\u8054\u7f51\u516c\u53f8\u5de5\u4f5c\u5feb\u5341\u5e74\u4e86\uff0c\u5e73\u65f6\u559c\u6b22\u601d\u8003\u4e00\u4e9b\u4e8b\u60c5\uff0c\u6240\u4ee5\u5f00\u4e2a\u516c\u4f17\u53f7\u8ddf\u5927\u5bb6\u5206\u4eab\u4e00\u4e9b\u60f3\u6cd5\u3002
p5827
sVContactFlag
p5828
I3
sVNickName
p5829
V\u5927\u98de\u7801\u5b57
p5830
sVRemarkPYQuanPin
p5831
g44
sVHeadImgUrl
p5832
V/cgi-bin/mmwebwx-bin/webwxgeticon?seq=708766901&username=@1915fc9b70d220a7db53f92d9d56a91f&skey=@crypt_c4463405_3b7c724258920b3156a723070c0a22f1
p5833
sVSex
p5834
I0
sVStarFriend
p5835
I0
sVStatues
p5836
I0
sa(dp5837
VUserName
p5838
V@16ccf9d9e84f37edb9c1e3ceeac5dae3
p5839
sVCity
p5840
V\u6d66\u4e1c\u65b0\u533a
p5841
sVDisplayName
p5842
g44
sVUniFriend
p5843
I0
sVMemberList
p5844
(lp5845
sVPYQuanPin
p5846
VPythonaihaozhesheou
p5847
sVRemarkPYInitial
p5848
g44
sVUin
p5849
I0
sVAppAccountFlag
p5850
I0
sVVerifyFlag
p5851
I8
sVProvince
p5852
V\u4e0a\u6d77
p5853
sVKeyWord
p5854
Vgh_
p5855
sVRemarkName
p5856
g44
sVPYInitial
p5857
VPYTHONAHZSO
p5858
sVChatRoomId
p5859
I0
sVIsOwner
p5860
I0
sVHideInputBarFlag
p5861
I0
sVEncryChatRoomId
p5862
g44
sVAttrStatus
p5863
I0
sVSnsFlag
p5864
I0
sVMemberCount
p5865
I0
sVOwnerUin
p5866
I0
sVAlias
p5867
g44
sVSignature
p5868
V\u4eba\u751f\u82e6\u77ed\uff0c\u6211\u7528Python\u3002\u5206\u4eabPython\u76f8\u5173\u7684\u6280\u672f\u6587\u7ae0\u3001\u5de5\u5177\u8d44\u6e90\u3001\u7cbe\u9009\u8bfe\u7a0b\u3001\u89c6\u9891\u6559\u7a0b\u3001\u70ed\u70b9\u8d44\u8baf\u3001\u5b66\u4e60\u8d44\u6599\u7b49\u3002\u6bcf\u5929\u81ea\u52a8\u66f4\u65b0\u548c\u63a8\u9001\u3002
p5869
sVContactFlag
p5870
I3
sVNickName
p5871
VPython\u7231\u597d\u8005\u793e\u533a
p5872
sVRemarkPYQuanPin
p5873
g44
sVHeadImgUrl
p5874
V/cgi-bin/mmwebwx-bin/webwxgeticon?seq=708766905&username=@16ccf9d9e84f37edb9c1e3ceeac5dae3&skey=@crypt_c4463405_3b7c724258920b3156a723070c0a22f1
p5875
sVSex
p5876
I0
sVStarFriend
p5877
I0
sVStatues
p5878
I0
sa(dp5879
VUserName
p5880
V@9dfa2fc1feeacf16d730d0e384d75486
p5881
sVCity
p5882
V\u6210\u90fd
p5883
sVDisplayName
p5884
g44
sVUniFriend
p5885
I0
sVMemberList
p5886
(lp5887
sVPYQuanPin
p5888
Vxiaolongkanlaohuoguo
p5889
sVRemarkPYInitial
p5890
g44
sVUin
p5891
I0
sVAppAccountFlag
p5892
I0
sVVerifyFlag
p5893
I24
sVProvince
p5894
V\u56db\u5ddd
p5895
sVKeyWord
p5896
Vgh_
p5897
sVRemarkName
p5898
g44
sVPYInitial
p5899
VXLKLHG
p5900
sVChatRoomId
p5901
I0
sVIsOwner
p5902
I0
sVHideInputBarFlag
p5903
I0
sVEncryChatRoomId
p5904
g44
sVAttrStatus
p5905
I0
sVSnsFlag
p5906
I0
sVMemberCount
p5907
I0
sVOwnerUin
p5908
I0
sVAlias
p5909
g44
sVSignature
p5910
V\u5173\u6ce8\u5c0f\u9f99\u574e\u8001\u706b\u9505\u5b98\u65b9\u516c\u4f17\u53f7\uff0c\u83b7\u53d6\u5e97\u9762\u6700\u65b0\u4f18\u60e0\u6d3b\u52a8\u3001\u5373\u65f6\u6392\u53f7\u8fdb\u7a0b\u3001\u514d\u8d39wifi\u3001\u95e8\u5e97\u5bfc\u822a\u3001\u8ba2\u9910\u7535\u8bdd\u7b49\u4fe1\u606f\u3002
p5911
sVContactFlag
p5912
I1
sVNickName
p5913
V\u5c0f\u9f99\u574e\u8001\u706b\u9505
p5914
sVRemarkPYQuanPin
p5915
g44
sVHeadImgUrl
p5916
V/cgi-bin/mmwebwx-bin/webwxgeticon?seq=681257116&username=@9dfa2fc1feeacf16d730d0e384d75486&skey=@crypt_c4463405_3b7c724258920b3156a723070c0a22f1
p5917
sVSex
p5918
I0
sVStarFriend
p5919
I0
sVStatues
p5920
I0
sa(dp5921
VUserName
p5922
V@64b2bed2e832f1b1591bf1b5561fdbd1
p5923
sVCity
p5924
V\u6b66\u6c49
p5925
sVDisplayName
p5926
g44
sVUniFriend
p5927
I0
sVMemberList
p5928
(lp5929
sVPYQuanPin
p5930
Vhubeiliantong
p5931
sVRemarkPYInitial
p5932
g44
sVUin
p5933
I0
sVAppAccountFlag
p5934
I0
sVVerifyFlag
p5935
I24
sVProvince
p5936
V\u6e56\u5317
p5937
sVKeyWord
p5938
Vgh_
p5939
sVRemarkName
p5940
g44
sVPYInitial
p5941
VHBLT
p5942
sVChatRoomId
p5943
I0
sVIsOwner
p5944
I0
sVHideInputBarFlag
p5945
I0
sVEncryChatRoomId
p5946
g44
sVAttrStatus
p5947
I0
sVSnsFlag
p5948
I0
sVMemberCount
p5949
I0
sVOwnerUin
p5950
I0
sVAlias
p5951
g44
sVSignature
p5952
V\u63d0\u4f9b\u968f\u8eab\u670d\u52a1\uff0c\u65b9\u4fbf\u60a8\u67e5\u8be2\u8bdd\u8d39\u3001\u529e\u7406\u4e1a\u52a1\u3001\u4ea4\u8d39\u5145\u503c\u3001\u53c2\u52a0\u6d3b\u52a8\u3002
p5953
sVContactFlag
p5954
I1
sVNickName
p5955
V\u6e56\u5317\u8054\u901a
p5956
sVRemarkPYQuanPin
p5957
g44
sVHeadImgUrl
p5958
V/cgi-bin/mmwebwx-bin/webwxgeticon?seq=662627437&username=@64b2bed2e832f1b1591bf1b5561fdbd1&skey=@crypt_c4463405_3b7c724258920b3156a723070c0a22f1
p5959
sVSex
p5960
I0
sVStarFriend
p5961
I0
sVStatues
p5962
I0
sa(dp5963
VUserName
p5964
V@2407f746f9e424763f8297e06de0b652
p5965
sVCity
p5966
V\u6df1\u5733
p5967
sVDisplayName
p5968
g44
sVUniFriend
p5969
I0
sVMemberList
p5970
(lp5971
sVPYQuanPin
p5972
Vwangkazhushou
p5973
sVRemarkPYInitial
p5974
g44
sVUin
p5975
I0
sVAppAccountFlag
p5976
I0
sVVerifyFlag
p5977
I24
sVProvince
p5978
V\u5e7f\u4e1c
p5979
sVKeyWord
p5980
Vgh_
p5981
sVRemarkName
p5982
g44
sVPYInitial
p5983
VWKZS
p5984
sVChatRoomId
p5985
I0
sVIsOwner
p5986
I0
sVHideInputBarFlag
p5987
I0
sVEncryChatRoomId
p5988
g44
sVAttrStatus
p5989
I0
sVSnsFlag
p5990
I0
sVMemberCount
p5991
I0
sVOwnerUin
p5992
I0
sVAlias
p5993
g44
sVSignature
p5994
V\u201c\u817e\u8baf\u738b\u5361\u201d\u4e3a\u8054\u901a\u4e0e\u817e\u8baf\u5408\u4f5c\u7684\u5b9a\u5236\u5316\u53f7\u5361\u4ea7\u54c1\uff0c\u8d85100\u6b3eAPP\u5e94\u7528\u4e13\u5c5e\u514d\u6d41\u91cf\u4e0d\u9650\u901f\uff0c\u56db\u5927\u6743\u76ca\u8ba9\u60a8\u5c0a\u4eab\u4f18\u60e0\uff0c\u8d70\u904d\u5168\u56fd\u4e0d\u6362\u53f7\uff01\u66f4\u591a\u60ca\u559c\u5c3d\u5728\u201c\u738b\u5361\u52a9\u624b\u201d\uff0c\u671f\u5f85\u4e0e\u60a8\u4e00\u8def\u540c\u884c\uff01
p5995
sVContactFlag
p5996
I1
sVNickName
p5997
V\u738b\u5361\u52a9\u624b
p5998
sVRemarkPYQuanPin
p5999
g44
sVHeadImgUrl
p6000
V/cgi-bin/mmwebwx-bin/webwxgeticon?seq=662627296&username=@2407f746f9e424763f8297e06de0b652&skey=@crypt_c4463405_3b7c724258920b3156a723070c0a22f1
p6001
sVSex
p6002
I0
sVStarFriend
p6003
I0
sVStatues
p6004
I0
sa(dp6005
VUserName
p6006
V@e74c08cd4b171d40792923c98fb6ebb0
p6007
sVCity
p6008
V\u957f\u5b81
p6009
sVDisplayName
p6010
g44
sVUniFriend
p6011
I0
sVMemberList
p6012
(lp6013
sVPYQuanPin
p6014
Vduoduojinbao
p6015
sVRemarkPYInitial
p6016
g44
sVUin
p6017
I0
sVAppAccountFlag
p6018
I0
sVVerifyFlag
p6019
I24
sVProvince
p6020
V\u4e0a\u6d77
p6021
sVKeyWord
p6022
Vgh_
p6023
sVRemarkName
p6024
g44
sVPYInitial
p6025
VDDJB
p6026
sVChatRoomId
p6027
I0
sVIsOwner
p6028
I0
sVHideInputBarFlag
p6029
I0
sVEncryChatRoomId
p6030
g44
sVAttrStatus
p6031
I0
sVSnsFlag
p6032
I0
sVMemberCount
p6033
I0
sVOwnerUin
p6034
I0
sVAlias
p6035
g44
sVSignature
p6036
V\u62fc\u591a\u591a\u5b98\u65b9\u8d2d\u7269\u8fd4\u73b0\u5e73\u53f0\uff0c\u6bcf\u65e5\u53d1\u653e\u5185\u90e8\u4f18\u60e0\u5238\u3002\u5206\u4eab\u8d5a\u94b1\uff0c\u81ea\u8d2d\u7701\u94b1\uff0c\u5168\u90e8\u53ef\u63d0\u73b0\u91d1\uff01
p6037
sVContactFlag
p6038
I1
sVNickName
p6039
V\u591a\u591a\u8fdb\u5b9d
p6040
sVRemarkPYQuanPin
p6041
g44
sVHeadImgUrl
p6042
V/cgi-bin/mmwebwx-bin/webwxgeticon?seq=708768370&username=@e74c08cd4b171d40792923c98fb6ebb0&skey=@crypt_c4463405_3b7c724258920b3156a723070c0a22f1
p6043
sVSex
p6044
I0
sVStarFriend
p6045
I0
sVStatues
p6046
I0
sa(dp6047
VUserName
p6048
V@454403564c9f48b3d41919808e926cce
p6049
sVCity
p6050
V\u6df1\u5733
p6051
sVDisplayName
p6052
g44
sVUniFriend
p6053
I0
sVMemberList
p6054
(lp6055
sVPYQuanPin
p6056
Vshunfengsuyun
p6057
sVRemarkPYInitial
p6058
g44
sVUin
p6059
I0
sVAppAccountFlag
p6060
I0
sVVerifyFlag
p6061
I24
sVProvince
p6062
V\u5e7f\u4e1c
p6063
sVKeyWord
p6064
Vgh_
p6065
sVRemarkName
p6066
g44
sVPYInitial
p6067
VSFSY
p6068
sVChatRoomId
p6069
I0
sVIsOwner
p6070
I0
sVHideInputBarFlag
p6071
I0
sVEncryChatRoomId
p6072
g44
sVAttrStatus
p6073
I0
sVSnsFlag
p6074
I0
sVMemberCount
p6075
I0
sVOwnerUin
p6076
I0
sVAlias
p6077
g44
sVSignature
p6078
V\u5feb\u4ef6\u4fe1\u606f\u5b9e\u65f6\u6536\uff0c\u4f1a\u5458\u6743\u76ca\u7b49\u4f60\u62ff\u3002\u987a\u4e30\u901f\u8fd0\u51fa\u54c1\uff0c\u4e00\u6b3e\u63d0\u4f9b\u5728\u7ebf\u5bc4\u4ef6\u3001\u4e00\u5c0f\u65f6\u4e0a\u95e8\u3001\u5feb\u9012\u5355\u53f7\u67e5\u8be2\u3001\u7f51\u70b9\u67e5\u8be2\u3001\u8fd0\u8d39\u67e5\u8be2\u7b49\u76f8\u5173\u670d\u52a1\u7684\u5feb\u9012\u7269\u6d41\u516c\u4f17\u53f7\u3002\u67e5\u5feb\u9012\u3001\u5bc4\u5feb\u9012\u7528\u987a\u4e30\uff0c\u4e0d\u6b62\u662f\u5feb\u3002
p6079
sVContactFlag
p6080
I1
sVNickName
p6081
V\u987a\u4e30\u901f\u8fd0
p6082
sVRemarkPYQuanPin
p6083
g44
sVHeadImgUrl
p6084
V/cgi-bin/mmwebwx-bin/webwxgeticon?seq=681294407&username=@454403564c9f48b3d41919808e926cce&skey=@crypt_c4463405_3b7c724258920b3156a723070c0a22f1
p6085
sVSex
p6086
I0
sVStarFriend
p6087
I0
sVStatues
p6088
I0
sa(dp6089
VUserName
p6090
V@98da1b5ab1108b39f6394e8838ec2e6f
p6091
sVCity
p6092
V\u957f\u5b81
p6093
sVDisplayName
p6094
g44
sVUniFriend
p6095
I0
sVMemberList
p6096
(lp6097
sVPYQuanPin
p6098
VjingdongPLUShuiyuan
p6099
sVRemarkPYInitial
p6100
g44
sVUin
p6101
I0
sVAppAccountFlag
p6102
I0
sVVerifyFlag
p6103
I24
sVProvince
p6104
V\u4e0a\u6d77
p6105
sVKeyWord
p6106
Vgh_
p6107
sVRemarkName
p6108
g44
sVPYInitial
p6109
VJDPLUSHY
p6110
sVChatRoomId
p6111
I0
sVIsOwner
p6112
I0
sVHideInputBarFlag
p6113
I0
sVEncryChatRoomId
p6114
g44
sVAttrStatus
p6115
I0
sVSnsFlag
p6116
I0
sVMemberCount
p6117
I0
sVOwnerUin
p6118
I0
sVAlias
p6119
g44
sVSignature
p6120
V\u4eac\u4e1c\u4e3a\u5411\u6838\u5fc3\u5ba2\u6237\u63d0\u4f9b\u66f4\u4f18\u8d28\u7684\u8d2d\u7269\u4f53\u9a8c\uff0c\u7279\u522b\u63a8\u51fa\u4eac\u4e1cPLUS\u4f1a\u5458\uff0cPLUS\u6743\u76ca\u5305\u542b\u8d2d\u7269\u56de\u9988\u3001\u81ea\u8425\u514d\u8fd0\u8d39\u3001\u7231\u5947\u827a\u5e74\u5361\u4f1a\u5458\u3001\u77e5\u4e4e\u8bfb\u4e66\u5e74\u5361\u4f1a\u5458\u3001\u4e13\u4eab\u4ef7\u5546\u54c1\u7b49\u5341\u4e00\u5927\u7279\u6743\uff0c\u6211\u4eec\u5c06\u4e0d\u65ad\u4e30\u5bccPLUS\u7684\u4f1a\u5458\u6743\u76ca\uff0c\u4e3a\u60a8\u63d0\u4f9b\u66f4\u5b8c\u5584\u7684\u670d\u52a1\u3002
p6121
sVContactFlag
p6122
I1
sVNickName
p6123
V\u4eac\u4e1cPLUS\u4f1a\u5458
p6124
sVRemarkPYQuanPin
p6125
g44
sVHeadImgUrl
p6126
V/cgi-bin/mmwebwx-bin/webwxgeticon?seq=681319520&username=@98da1b5ab1108b39f6394e8838ec2e6f&skey=@crypt_c4463405_3b7c724258920b3156a723070c0a22f1
p6127
sVSex
p6128
I0
sVStarFriend
p6129
I0
sVStatues
p6130
I0
sa(dp6131
VUserName
p6132
V@16f013c98fe9a096d9ce6176b71b1dcf
p6133
sVCity
p6134
g44
sVDisplayName
p6135
g44
sVUniFriend
p6136
I0
sVMemberList
p6137
(lp6138
sVPYQuanPin
p6139
VHMguanfang
p6140
sVRemarkPYInitial
p6141
g44
sVUin
p6142
I0
sVAppAccountFlag
p6143
I0
sVVerifyFlag
p6144
I24
sVProvince
p6145
V\u4e0a\u6d77
p6146
sVKeyWord
p6147
Vgh_
p6148
sVRemarkName
p6149
g44
sVPYInitial
p6150
VHMGF
p6151
sVChatRoomId
p6152
I0
sVIsOwner
p6153
I0
sVHideInputBarFlag
p6154
I0
sVEncryChatRoomId
p6155
g44
sVAttrStatus
p6156
I0
sVSnsFlag
p6157
I0
sVMemberCount
p6158
I0
sVOwnerUin
p6159
I0
sVAlias
p6160
g44
sVSignature
p6161
V\u79c9\u627f\u201c\u4ee5\u4f18\u60e0\u7684\u4ef7\u683c\u63d0\u4f9b\u65f6\u5c1a\u548c\u54c1\u8d28\u201d\u7684\u7ecf\u8425\u7406\u5ff5\uff0c\u56fd\u9645\u65f6\u88c5\u54c1\u724cH&amp;M\u4e3a\u60a8\u5e26\u6765\u5168\u65b0\u7684\u65f6\u5c1a\u4f53\u9a8c\u3002\u968f\u65f6\u638c\u63e1\u65b0\u9c9c\u65f6\u5c1a\u8d44\u8baf\uff0c\u4eab\u53d7\u66f4\u591a\u4e92\u52a8\u4f53\u9a8c\uff0c\u5173\u6ce8\u6211\u4eec\uff0c\u5373\u523b\u5f00\u542f\uff01
p6162
sVContactFlag
p6163
I1
sVNickName
p6164
VHM\u5b98\u65b9
p6165
sVRemarkPYQuanPin
p6166
g44
sVHeadImgUrl
p6167
V/cgi-bin/mmwebwx-bin/webwxgeticon?seq=662644115&username=@16f013c98fe9a096d9ce6176b71b1dcf&skey=@crypt_c4463405_3b7c724258920b3156a723070c0a22f1
p6168
sVSex
p6169
I0
sVStarFriend
p6170
I0
sVStatues
p6171
I0
sa(dp6172
VUserName
p6173
V@b95cc20bd31c7d759111efe62bb4259f
p6174
sVCity
p6175
V\u5f90\u6c47
p6176
sVDisplayName
p6177
g44
sVUniFriend
p6178
I0
sVMemberList
p6179
(lp6180
sVPYQuanPin
p6181
Vyouyiku
p6182
sVRemarkPYInitial
p6183
g44
sVUin
p6184
I0
sVAppAccountFlag
p6185
I0
sVVerifyFlag
p6186
I28
sVProvince
p6187
V\u4e0a\u6d77
p6188
sVKeyWord
p6189
Vyou
p6190
sVRemarkName
p6191
g44
sVPYInitial
p6192
VYYK
p6193
sVChatRoomId
p6194
I0
sVIsOwner
p6195
I0
sVHideInputBarFlag
p6196
I0
sVEncryChatRoomId
p6197
g44
sVAttrStatus
p6198
I3
sVSnsFlag
p6199
I0
sVMemberCount
p6200
I0
sVOwnerUin
p6201
I0
sVAlias
p6202
g44
sVSignature
p6203
V\u4f18\u8863\u5e93\u54c1\u724c\u5b98\u65b9\u5fae\u4fe1
p6204
sVContactFlag
p6205
I1
sVNickName
p6206
V\u4f18\u8863\u5e93
p6207
sVRemarkPYQuanPin
p6208
g44
sVHeadImgUrl
p6209
V/cgi-bin/mmwebwx-bin/webwxgeticon?seq=681275289&username=@b95cc20bd31c7d759111efe62bb4259f&skey=@crypt_c4463405_3b7c724258920b3156a723070c0a22f1
p6210
sVSex
p6211
I0
sVStarFriend
p6212
I0
sVStatues
p6213
I0
sa(dp6214
VUserName
p6215
V@0b601c87ec0a9b048d71b57aae3e3736
p6216
sVCity
p6217
g44
sVDisplayName
p6218
g44
sVUniFriend
p6219
I0
sVMemberList
p6220
(lp6221
sVPYQuanPin
p6222
VTower
p6223
sVRemarkPYInitial
p6224
g44
sVUin
p6225
I0
sVAppAccountFlag
p6226
I0
sVVerifyFlag
p6227
I24
sVProvince
p6228
V\u56db\u5ddd
p6229
sVKeyWord
p6230
Vgh_
p6231
sVRemarkName
p6232
g44
sVPYInitial
p6233
VTOWER
p6234
sVChatRoomId
p6235
I0
sVIsOwner
p6236
I0
sVHideInputBarFlag
p6237
I0
sVEncryChatRoomId
p6238
g44
sVAttrStatus
p6239
I0
sVSnsFlag
p6240
I0
sVMemberCount
p6241
I0
sVOwnerUin
p6242
I0
sVAlias
p6243
g44
sVSignature
p6244
V\u6df1\u53d7\u7528\u6237\u559c\u7231\u7684\u56e2\u961f\u534f\u4f5c\u5de5\u5177 - Tower
p6245
sVContactFlag
p6246
I1
sVNickName
p6247
VTower
p6248
sVRemarkPYQuanPin
p6249
g44
sVHeadImgUrl
p6250
V/cgi-bin/mmwebwx-bin/webwxgeticon?seq=681284282&username=@0b601c87ec0a9b048d71b57aae3e3736&skey=@crypt_c4463405_3b7c724258920b3156a723070c0a22f1
p6251
sVSex
p6252
I0
sVStarFriend
p6253
I0
sVStatues
p6254
I0
sa(dp6255
VUserName
p6256
V@d526be154c2ee9513ecba0040345cc8b
p6257
sVCity
p6258
V\u676d\u5dde
p6259
sVDisplayName
p6260
g44
sVUniFriend
p6261
I0
sVMemberList
p6262
(lp6263
sVPYQuanPin
p6264
Vwokendingbuchiyexiaoa
p6265
sVRemarkPYInitial
p6266
g44
sVUin
p6267
I0
sVAppAccountFlag
p6268
I0
sVVerifyFlag
p6269
I24
sVProvince
p6270
V\u6d59\u6c5f
p6271
sVKeyWord
p6272
Vgh_
p6273
sVRemarkName
p6274
g44
sVPYInitial
p6275
VWKDBCYXA
p6276
sVChatRoomId
p6277
I0
sVIsOwner
p6278
I0
sVHideInputBarFlag
p6279
I0
sVEncryChatRoomId
p6280
g44
sVAttrStatus
p6281
I0
sVSnsFlag
p6282
I0
sVMemberCount
p6283
I0
sVOwnerUin
p6284
I0
sVAlias
p6285
g44
sVSignature
p6286
V\u6211\u80af\u5b9a\u4e0d\u5403\u591c\u5bb5\u554a
p6287
sVContactFlag
p6288
I1
sVNickName
p6289
V\u6211\u80af\u5b9a\u4e0d\u5403\u591c\u5bb5\u554a
p6290
sVRemarkPYQuanPin
p6291
g44
sVHeadImgUrl
p6292
V/cgi-bin/mmwebwx-bin/webwxgeticon?seq=681307548&username=@d526be154c2ee9513ecba0040345cc8b&skey=@crypt_c4463405_3b7c724258920b3156a723070c0a22f1
p6293
sVSex
p6294
I0
sVStarFriend
p6295
I0
sVStatues
p6296
I0
sa(dp6297
VUserName
p6298
V@3590e96d262d665cc4407537c0db5ea4
p6299
sVCity
p6300
V\u73e0\u6d77
p6301
sVDisplayName
p6302
g44
sVUniFriend
p6303
I0
sVMemberList
p6304
(lp6305
sVPYQuanPin
p6306
VWPShuiyuan
p6307
sVRemarkPYInitial
p6308
g44
sVUin
p6309
I0
sVAppAccountFlag
p6310
I0
sVVerifyFlag
p6311
I24
sVProvince
p6312
V\u5e7f\u4e1c
p6313
sVKeyWord
p6314
Vgh_
p6315
sVRemarkName
p6316
g44
sVPYInitial
p6317
VWPSHY
p6318
sVChatRoomId
p6319
I0
sVIsOwner
p6320
I0
sVHideInputBarFlag
p6321
I0
sVEncryChatRoomId
p6322
g44
sVAttrStatus
p6323
I0
sVSnsFlag
p6324
I0
sVMemberCount
p6325
I0
sVOwnerUin
p6326
I0
sVAlias
p6327
g44
sVSignature
p6328
V\u5173\u6ce8WPS\u4f1a\u5458\u4e2d\u5fc3\uff0c\u4fbf\u6377\u7684\u4f1a\u5458\u670d\u52a1\uff0c\u8ba9\u60a8\u968f\u8eab\u5e26\u7740\u7279\u6743\u8d70\uff0c\u65f6\u65f6\u523b\u523b\u4eab\u53d7WPS\u4f1a\u5458\u7279\u6743\uff01
p6329
sVContactFlag
p6330
I1
sVNickName
p6331
VWPS\u4f1a\u5458
p6332
sVRemarkPYQuanPin
p6333
g44
sVHeadImgUrl
p6334
V/cgi-bin/mmwebwx-bin/webwxgeticon?seq=681225904&username=@3590e96d262d665cc4407537c0db5ea4&skey=@crypt_c4463405_3b7c724258920b3156a723070c0a22f1
p6335
sVSex
p6336
I0
sVStarFriend
p6337
I0
sVStatues
p6338
I0
sa(dp6339
VUserName
p6340
V@d05625b362886daa50e56c2a7b5e3af1
p6341
sVCity
p6342
g44
sVDisplayName
p6343
g44
sVUniFriend
p6344
I0
sVMemberList
p6345
(lp6346
sVPYQuanPin
p6347
Vweixinzhifu
p6348
sVRemarkPYInitial
p6349
g44
sVUin
p6350
I0
sVAppAccountFlag
p6351
I0
sVVerifyFlag
p6352
I24
sVProvince
p6353
V\u5e7f\u4e1c
p6354
sVKeyWord
p6355
Vgh_
p6356
sVRemarkName
p6357
g44
sVPYInitial
p6358
VWXZF
p6359
sVChatRoomId
p6360
I0
sVIsOwner
p6361
I0
sVHideInputBarFlag
p6362
I0
sVEncryChatRoomId
p6363
g44
sVAttrStatus
p6364
I0
sVSnsFlag
p6365
I0
sVMemberCount
p6366
I0
sVOwnerUin
p6367
I0
sVAlias
p6368
g44
sVSignature
p6369
V\u5e2e\u52a9\u89e3\u51b3\u5fae\u4fe1\u652f\u4ed8\u4e2d\u9047\u5230\u7684\u56f0\u96be\uff0c\u6536\u96c6\u5173\u4e8e\u5fae\u4fe1\u652f\u4ed8\u7684\u5efa\u8bae\u53cd\u9988\u3002
p6370
sVContactFlag
p6371
I1
sVNickName
p6372
V\u5fae\u4fe1\u652f\u4ed8
p6373
sVRemarkPYQuanPin
p6374
g44
sVHeadImgUrl
p6375
V/cgi-bin/mmwebwx-bin/webwxgeticon?seq=622070079&username=@d05625b362886daa50e56c2a7b5e3af1&skey=@crypt_c4463405_3b7c724258920b3156a723070c0a22f1
p6376
sVSex
p6377
I0
sVStarFriend
p6378
I0
sVStatues
p6379
I0
sa(dp6380
VUserName
p6381
V@ecded5ee58beb787ff21fba0c4e84e06
p6382
sVCity
p6383
V\u5927\u5174
p6384
sVDisplayName
p6385
g44
sVUniFriend
p6386
I0
sVMemberList
p6387
(lp6388
sVPYQuanPin
p6389
Vjingdongbaitiao
p6390
sVRemarkPYInitial
p6391
g44
sVUin
p6392
I0
sVAppAccountFlag
p6393
I0
sVVerifyFlag
p6394
I24
sVProvince
p6395
V\u5317\u4eac
p6396
sVKeyWord
p6397
Vgh_
p6398
sVRemarkName
p6399
g44
sVPYInitial
p6400
VJDBT
p6401
sVChatRoomId
p6402
I0
sVIsOwner
p6403
I0
sVHideInputBarFlag
p6404
I0
sVEncryChatRoomId
p6405
g44
sVAttrStatus
p6406
I0
sVSnsFlag
p6407
I0
sVMemberCount
p6408
I0
sVOwnerUin
p6409
I0
sVAlias
p6410
g44
sVSignature
p6411
V\u5148\u6d88\u8d39\uff0c\u540e\u4ed8\u6b3e\u3002\u4fe1\u7528\u597d\uff0c\u6253\u767d\u6761\u3002\u8d85\u4f4e\u5206\u671f\u8d39\u7387\uff0c\u66f4\u6709\u4e13\u4eab\u4f18\u60e0\u3002
p6412
sVContactFlag
p6413
I1
sVNickName
p6414
V\u4eac\u4e1c\u767d\u6761
p6415
sVRemarkPYQuanPin
p6416
g44
sVHeadImgUrl
p6417
V/cgi-bin/mmwebwx-bin/webwxgeticon?seq=681304983&username=@ecded5ee58beb787ff21fba0c4e84e06&skey=@crypt_c4463405_3b7c724258920b3156a723070c0a22f1
p6418
sVSex
p6419
I0
sVStarFriend
p6420
I0
sVStatues
p6421
I0
sassS'loginInfo'
p6422
(dp6423
S'SyncKey'
p6424
(dp6425
VCount
p6426
I11
sVList
p6427
(lp6428
(dp6429
VVal
p6430
I708768922
sVKey
p6431
I1
sa(dp6432
VVal
p6433
I708768999
sVKey
p6434
I2
sa(dp6435
VVal
p6436
I708768993
sVKey
p6437
I3
sa(dp6438
VVal
p6439
I708768974
sVKey
p6440
I11
sa(dp6441
VVal
p6442
I126
sVKey
p6443
I19
sa(dp6444
VVal
p6445
I1578730904
sVKey
p6446
I201
sa(dp6447
VVal
p6448
I1578730199
sVKey
p6449
I202
sa(dp6450
VVal
p6451
I1578729745
sVKey
p6452
I203
sa(dp6453
VVal
p6454
I1
sVKey
p6455
I206
sa(dp6456
VVal
p6457
I1578730364
sVKey
p6458
I1000
sa(dp6459
VVal
p6460
I1578730589
sVKey
p6461
I1001
sassS'syncUrl'
p6462
S'https://webpush.wx.qq.com/cgi-bin/mmwebwx-bin'
p6463
sS'skey'
p6464
V@crypt_c4463405_3b7c724258920b3156a723070c0a22f1
p6465
sS'wxuin'
p6466
V1424655402
p6467
sS'synckey'
p6468
S'1_708768922|2_708768999|3_708768993|11_708768974|19_126|201_1578730904|202_1578730199|203_1578729745|206_1|1000_1578730364|1001_1578730589'
p6469
sS'url'
p6470
Vhttps://wx.qq.com/cgi-bin/mmwebwx-bin
p6471
sS'pass_ticket'
p6472
VrULKBK0Fy2dfBXaL5NznsmZp1ISXuzC%2BV8Ij3mxtdohaH5aS7GpJm5vb8xWGqnW6
p6473
sS'wxsid'
p6474
VVH+mcYl10AqiL22T
p6475
sS'InviteStartCount'
p6476
I40
sS'User'
p6477
g35
sS'fileUrl'
p6478
S'https://file.wx.qq.com/cgi-bin/mmwebwx-bin'
p6479
sS'BaseRequest'
p6480
(dp6481
g71
g6467
sS'Skey'
p6482
g6465
sS'DeviceID'
p6483
g6473
sS'Sid'
p6484
g6475
ssS'deviceid'
p6485
S'e93332060655712'
p6486
ss.