(dp0
S'cookies'
p1
(dp2
S'wxloadtime'
p3
S'1578722312'
p4
sS'webwx_data_ticket'
p5
S'gScFGpdwfynyoFHxU88xWcVJ'
p6
sS'wxuin'
p7
S'1424655402'
p8
sS'login_frequency'
p9
S'2'
p10
sS'MM_WX_NOTIFY_STATE'
p11
S'1'
p12
sS'MM_WX_SOUND_STATE'
p13
g12
sS'webwx_auth_ticket'
p14
S'CIsBEMOI+/MKGoABIg+ZJ8y0uMOWfRlACcHDJOqG6RRroSfOXttCoyitWFUz2u2COfbDeISAzrbYf88YUOFvJ+No9vUpWq9UZx1Ee7af9c0GVd4fYWn4fsI7s9K/biw+eckpkhLkwiEgMAI5p66oW+mDQ7OEPd9hCyJlbl7Tk3Eas2zA73c2NKfly1c='
p15
sS'last_wxuin'
p16
S'1424655402'
p17
sS'webwxuvid'
p18
S'aae585d5e7dd6928d4bb075641e497ea7e3c46a4172be3803f1425742fc6035f8b2f99f1521c776da80d19dd07de0564'
p19
sS'wxpluginkey'
p20
S'1578721202'
p21
sS'wxsid'
p22
S'RkbTNFviKjSWb7EP'
p23
sS'mm_lang'
p24
S'zh_CN'
p25
ssS'version'
p26
S'1.2.32'
p27
sS'storage'
p28
(dp29
S'userName'
p30
V@6426b725650bc2999423ed06ff061d17528f0a546baad59af9805da79c3b8b36
p31
sS'lastInputUserName'
p32
NsS'memberList'
p33
(lp34
(dp35
S'UserName'
p36
g31
sS'City'
p37
S''
p38
sS'DisplayName'
p39
g38
sS'UniFriend'
p40
I0
sS'MemberList'
p41
(lp42
sS'PYQuanPin'
p43
V
p44
sS'RemarkPYInitial'
p45
g44
sS'Sex'
p46
I1
sS'AppAccountFlag'
p47
I0
sS'VerifyFlag'
p48
I0
sS'Province'
p49
g38
sS'KeyWord'
p50
g38
sS'RemarkName'
p51
g44
sS'PYInitial'
p52
g44
sS'ChatRoomId'
p53
I0
sS'HideInputBarFlag'
p54
I0
sVHeadImgFlag
p55
I1
sS'EncryChatRoomId'
p56
g38
sS'AttrStatus'
p57
I0
sVWebWxPluginSwitch
p58
I0
sS'SnsFlag'
p59
I16
sS'MemberCount'
p60
I0
sS'OwnerUin'
p61
I0
sS'Alias'
p62
g38
sS'Signature'
p63
VZnVjayB3b3JsZA==
p64
sS'ContactFlag'
p65
I0
sS'NickName'
p66
VAlpha
p67
sS'RemarkPYQuanPin'
p68
g44
sS'HeadImgUrl'
p69
V/cgi-bin/mmwebwx-bin/webwxgeticon?seq=2133538774&username=@6426b725650bc2999423ed06ff061d17528f0a546baad59af9805da79c3b8b36&skey=@crypt_c4463405_f828997f90577ab38fb847ff6f45f664
p70
sS'Uin'
p71
I1424655402
sS'StarFriend'
p72
I0
sS'Statues'
p73
I0
sa(dp74
VUserName
p75
V@a3dde23880553ed40c203495f934563e0fc3bee0e4a953eb772c01ea6581f6e7
p76
sVCity
p77
g44
sVDisplayName
p78
g44
sVUniFriend
p79
I0
sVMemberList
p80
(lp81
sVPYQuanPin
p82
Vziyueyu
p83
sVRemarkPYInitial
p84
VLYL
p85
sVUin
p86
I0
sVAppAccountFlag
p87
I0
sVVerifyFlag
p88
I0
sVProvince
p89
g44
sVKeyWord
p90
g44
sVRemarkName
p91
V\u5218\u73a5\u826f
p92
sVPYInitial
p93
VZYY
p94
sVChatRoomId
p95
I0
sVIsOwner
p96
I0
sVHideInputBarFlag
p97
I0
sVEncryChatRoomId
p98
g44
sVAttrStatus
p99
I33788517
sVSnsFlag
p100
I17
sVMemberCount
p101
I0
sVOwnerUin
p102
I0
sVAlias
p103
g44
sVSignature
p104
g44
sVContactFlag
p105
I1
sVNickName
p106
V\u7d2b\u3065\u6708\u8bed
p107
sVRemarkPYQuanPin
p108
Vliuyueliang
p109
sVHeadImgUrl
p110
V/cgi-bin/mmwebwx-bin/webwxgeticon?seq=679167568&username=@a3dde23880553ed40c203495f934563e0fc3bee0e4a953eb772c01ea6581f6e7&skey=@crypt_c4463405_f828997f90577ab38fb847ff6f45f664
p111
sVSex
p112
I0
sVStarFriend
p113
I0
sVStatues
p114
I0
sa(dp115
VUserName
p116
V@50f6fabb4d360df37f4a683a5ad3b81bcb649afe6091ef88f4ce585a9207bfb2
p117
sVCity
p118
g44
sVDisplayName
p119
g44
sVUniFriend
p120
I0
sVMemberList
p121
(lp122
sVPYQuanPin
p123
Vxigema
p124
sVRemarkPYInitial
p125
VNCW
p126
sVUin
p127
I0
sVAppAccountFlag
p128
I0
sVVerifyFlag
p129
I0
sVProvince
p130
g44
sVKeyWord
p131
g44
sVRemarkName
p132
V\u8042\u6210\u73ae
p133
sVPYInitial
p134
VXGM
p135
sVChatRoomId
p136
I0
sVIsOwner
p137
I0
sVHideInputBarFlag
p138
I0
sVEncryChatRoomId
p139
g44
sVAttrStatus
p140
I135461
sVSnsFlag
p141
I1
sVMemberCount
p142
I0
sVOwnerUin
p143
I0
sVAlias
p144
g44
sVSignature
p145
g44
sVContactFlag
p146
I1
sVNickName
p147
V\u897f\u683c\u739b
p148
sVRemarkPYQuanPin
p149
Vniechengwei
p150
sVHeadImgUrl
p151
V/cgi-bin/mmwebwx-bin/webwxgeticon?seq=681250109&username=@50f6fabb4d360df37f4a683a5ad3b81bcb649afe6091ef88f4ce585a9207bfb2&skey=@crypt_c4463405_f828997f90577ab38fb847ff6f45f664
p152
sVSex
p153
I1
sVStarFriend
p154
I0
sVStatues
p155
I0
sa(dp156
VUserName
p157
V@f6baaf79a448a5208b732154089a5b6d5db98e8e3430e98c3d10ce9dfb3260f0
p158
sVCity
p159
g44
sVDisplayName
p160
g44
sVUniFriend
p161
I0
sVMemberList
p162
(lp163
sVPYQuanPin
p164
Vz
p165
sVRemarkPYInitial
p166
VZMJ
p167
sVUin
p168
I0
sVAppAccountFlag
p169
I0
sVVerifyFlag
p170
I0
sVProvince
p171
g44
sVKeyWord
p172
g44
sVRemarkName
p173
V\u8a79\u7f8e\u6770
p174
sVPYInitial
p175
VZ
p176
sVChatRoomId
p177
I0
sVIsOwner
p178
I0
sVHideInputBarFlag
p179
I0
sVEncryChatRoomId
p180
g44
sVAttrStatus
p181
I4133
sVSnsFlag
p182
I1
sVMemberCount
p183
I0
sVOwnerUin
p184
I0
sVAlias
p185
g44
sVSignature
p186
g44
sVContactFlag
p187
I1
sVNickName
p188
g165
sVRemarkPYQuanPin
p189
Vzhanmeijie
p190
sVHeadImgUrl
p191
V/cgi-bin/mmwebwx-bin/webwxgeticon?seq=662643256&username=@f6baaf79a448a5208b732154089a5b6d5db98e8e3430e98c3d10ce9dfb3260f0&skey=@crypt_c4463405_f828997f90577ab38fb847ff6f45f664
p192
sVSex
p193
I0
sVStarFriend
p194
I0
sVStatues
p195
I0
sa(dp196
VUserName
p197
V@6bcbefed287daf4f8f79a002af167d8ca05d4db4ccb1bd97867ef5f2f2d2c525
p198
sVCity
p199
V\u54c8\u5c14\u6ee8
p200
sVDisplayName
p201
g44
sVUniFriend
p202
I0
sVMemberList
p203
(lp204
sVPYQuanPin
p205
VM
p206
sVRemarkPYInitial
p207
VHZJ
p208
sVUin
p209
I0
sVAppAccountFlag
p210
I0
sVVerifyFlag
p211
I0
sVProvince
p212
V\u9ed1\u9f99\u6c5f
p213
sVKeyWord
p214
g44
sVRemarkName
p215
V\u90dd\u653f\u94a7
p216
sVPYInitial
p217
g206
sVChatRoomId
p218
I0
sVIsOwner
p219
I0
sVHideInputBarFlag
p220
I0
sVEncryChatRoomId
p221
g44
sVAttrStatus
p222
I102757
sVSnsFlag
p223
I256
sVMemberCount
p224
I0
sVOwnerUin
p225
I0
sVAlias
p226
g44
sVSignature
p227
g44
sVContactFlag
p228
I1
sVNickName
p229
g206
sVRemarkPYQuanPin
p230
Vhaozhengjun
p231
sVHeadImgUrl
p232
V/cgi-bin/mmwebwx-bin/webwxgeticon?seq=681241810&username=@6bcbefed287daf4f8f79a002af167d8ca05d4db4ccb1bd97867ef5f2f2d2c525&skey=@crypt_c4463405_f828997f90577ab38fb847ff6f45f664
p233
sVSex
p234
I1
sVStarFriend
p235
I0
sVStatues
p236
I0
sa(dp237
VUserName
p238
V@e44ea67f1e162e877b3822601875e30fde51666b233a25a1cfd21c0b738b7b20
p239
sVCity
p240
g44
sVDisplayName
p241
g44
sVUniFriend
p242
I0
sVMemberList
p243
(lp244
sVPYQuanPin
p245
Vwangyangdahai
p246
sVRemarkPYInitial
p247
VWLS
p248
sVUin
p249
I0
sVAppAccountFlag
p250
I0
sVVerifyFlag
p251
I0
sVProvince
p252
V\u6e56\u5317
p253
sVKeyWord
p254
g44
sVRemarkName
p255
V\u6c6a\u8001\u5e08
p256
sVPYInitial
p257
VWYDH
p258
sVChatRoomId
p259
I0
sVIsOwner
p260
I0
sVHideInputBarFlag
p261
I0
sVEncryChatRoomId
p262
g44
sVAttrStatus
p263
I135205
sVSnsFlag
p264
I257
sVMemberCount
p265
I0
sVOwnerUin
p266
I0
sVAlias
p267
g44
sVSignature
p268
V\u72d7\u72d7
p269
sVContactFlag
p270
I1
sVNickName
p271
V\u6c6a\u6d0b\u5927\u6d77
p272
sVRemarkPYQuanPin
p273
Vwanglaoshi
p274
sVHeadImgUrl
p275
V/cgi-bin/mmwebwx-bin/webwxgeticon?seq=662629972&username=@e44ea67f1e162e877b3822601875e30fde51666b233a25a1cfd21c0b738b7b20&skey=@crypt_c4463405_f828997f90577ab38fb847ff6f45f664
p276
sVSex
p277
I2
sVStarFriend
p278
I0
sVStatues
p279
I0
sa(dp280
VUserName
p281
V@ec983bcb06ffb7829ab3e4c4772c44f462637c4e3d4847d2ef7dea102107a38b
p282
sVCity
p283
g44
sVDisplayName
p284
g44
sVUniFriend
p285
I0
sVMemberList
p286
(lp287
sVPYQuanPin
p288
Vtsxtsxtsx
p289
sVRemarkPYInitial
p290
VTSX
p291
sVUin
p292
I0
sVAppAccountFlag
p293
I0
sVVerifyFlag
p294
I0
sVProvince
p295
g44
sVKeyWord
p296
g44
sVRemarkName
p297
V\u6c64\u614e\u8f69
p298
sVPYInitial
p299
VTSXTSXTSX
p300
sVChatRoomId
p301
I0
sVIsOwner
p302
I0
sVHideInputBarFlag
p303
I0
sVEncryChatRoomId
p304
g44
sVAttrStatus
p305
I102501
sVSnsFlag
p306
I257
sVMemberCount
p307
I0
sVOwnerUin
p308
I0
sVAlias
p309
g44
sVSignature
p310
g44
sVContactFlag
p311
I1
sVNickName
p312
Vtsxtsxtsx
p313
sVRemarkPYQuanPin
p314
Vtangshenxuan
p315
sVHeadImgUrl
p316
V/cgi-bin/mmwebwx-bin/webwxgeticon?seq=681249063&username=@ec983bcb06ffb7829ab3e4c4772c44f462637c4e3d4847d2ef7dea102107a38b&skey=@crypt_c4463405_f828997f90577ab38fb847ff6f45f664
p317
sVSex
p318
I1
sVStarFriend
p319
I0
sVStatues
p320
I0
sa(dp321
VUserName
p322
V@24b9dbee3fec7256ab9f9d3fac7fdd7f6ce108a40681f735b20990391c3e9606
p323
sVCity
p324
g44
sVDisplayName
p325
g44
sVUniFriend
p326
I0
sVMemberList
p327
(lp328
sVPYQuanPin
p329
Vpanxiuxu
p330
sVRemarkPYInitial
p331
g44
sVUin
p332
I0
sVAppAccountFlag
p333
I0
sVVerifyFlag
p334
I0
sVProvince
p335
g44
sVKeyWord
p336
g44
sVRemarkName
p337
g44
sVPYInitial
p338
VPXX
p339
sVChatRoomId
p340
I0
sVIsOwner
p341
I0
sVHideInputBarFlag
p342
I0
sVEncryChatRoomId
p343
g44
sVAttrStatus
p344
I16781349
sVSnsFlag
p345
I257
sVMemberCount
p346
I0
sVOwnerUin
p347
I0
sVAlias
p348
g44
sVSignature
p349
g44
sVContactFlag
p350
I1
sVNickName
p351
V\u6f58\u4fee\u65ed
p352
sVRemarkPYQuanPin
p353
g44
sVHeadImgUrl
p354
V/cgi-bin/mmwebwx-bin/webwxgeticon?seq=681289686&username=@24b9dbee3fec7256ab9f9d3fac7fdd7f6ce108a40681f735b20990391c3e9606&skey=@crypt_c4463405_f828997f90577ab38fb847ff6f45f664
p355
sVSex
p356
I0
sVStarFriend
p357
I0
sVStatues
p358
I0
sa(dp359
VUserName
p360
V@db1f0825a223e431a4ba73143d3580b9d9ef0c5bb878c9da59d3d80b52ada8f1
p361
sVCity
p362
V\u54c8\u5c14\u6ee8
p363
sVDisplayName
p364
g44
sVUniFriend
p365
I0
sVMemberList
p366
(lp367
sVPYQuanPin
p368
VBearManNeverFearspanclassemojiemoji1f43bspan
p369
sVRemarkPYInitial
p370
VGX
p371
sVUin
p372
I0
sVAppAccountFlag
p373
I0
sVVerifyFlag
p374
I0
sVProvince
p375
V\u9ed1\u9f99\u6c5f
p376
sVKeyWord
p377
g44
sVRemarkName
p378
V\u90ed\u65ed
p379
sVPYInitial
p380
VBEARMANNEVERFEARSPANCLASSEMOJIEMOJI1F43BSPAN
p381
sVChatRoomId
p382
I0
sVIsOwner
p383
I0
sVHideInputBarFlag
p384
I0
sVEncryChatRoomId
p385
g44
sVAttrStatus
p386
I4133
sVSnsFlag
p387
I1
sVMemberCount
p388
I0
sVOwnerUin
p389
I0
sVAlias
p390
g44
sVSignature
p391
g44
sVContactFlag
p392
I1
sVNickName
p393
VBear Man Never Fear\U0001f43b
p394
sVRemarkPYQuanPin
p395
Vguoxu
p396
sVHeadImgUrl
p397
V/cgi-bin/mmwebwx-bin/webwxgeticon?seq=681261798&username=@db1f0825a223e431a4ba73143d3580b9d9ef0c5bb878c9da59d3d80b52ada8f1&skey=@crypt_c4463405_f828997f90577ab38fb847ff6f45f664
p398
sVSex
p399
I1
sVStarFriend
p400
I0
sVStatues
p401
I0
sa(dp402
VUserName
p403
V@f870642a02d22bd75be0c51fcccd90d88a0f5fbf18d2421cc7427c4268f10bf1
p404
sVCity
p405
V\u4ed9\u6843
p406
sVDisplayName
p407
g44
sVUniFriend
p408
I0
sVMemberList
p409
(lp410
sVPYQuanPin
p411
Vlzh
p412
sVRemarkPYInitial
p413
VLZH
p414
sVUin
p415
I0
sVAppAccountFlag
p416
I0
sVVerifyFlag
p417
I0
sVProvince
p418
V\u6e56\u5317
p419
sVKeyWord
p420
g44
sVRemarkName
p421
V\u5218\u82b7\u6db5
p422
sVPYInitial
p423
VLZH
p424
sVChatRoomId
p425
I0
sVIsOwner
p426
I0
sVHideInputBarFlag
p427
I0
sVEncryChatRoomId
p428
g44
sVAttrStatus
p429
I102437
sVSnsFlag
p430
I49
sVMemberCount
p431
I0
sVOwnerUin
p432
I0
sVAlias
p433
g44
sVSignature
p434
g44
sVContactFlag
p435
I1
sVNickName
p436
Vlzh
p437
sVRemarkPYQuanPin
p438
Vliuzhihan
p439
sVHeadImgUrl
p440
V/cgi-bin/mmwebwx-bin/webwxgeticon?seq=681296606&username=@f870642a02d22bd75be0c51fcccd90d88a0f5fbf18d2421cc7427c4268f10bf1&skey=@crypt_c4463405_f828997f90577ab38fb847ff6f45f664
p441
sVSex
p442
I2
sVStarFriend
p443
I0
sVStatues
p444
I0
sa(dp445
VUserName
p446
V@5d64537dbfe16ed47b4879a181d440f7d1e082541edb217c92f7aa8cedf52a22
p447
sVCity
p448
V\u9f50\u9f50\u54c8\u5c14
p449
sVDisplayName
p450
g44
sVUniFriend
p451
I0
sVMemberList
p452
(lp453
sVPYQuanPin
p454
Vlingfeng
p455
sVRemarkPYInitial
p456
VJJ
p457
sVUin
p458
I0
sVAppAccountFlag
p459
I0
sVVerifyFlag
p460
I0
sVProvince
p461
V\u9ed1\u9f99\u6c5f
p462
sVKeyWord
p463
g44
sVRemarkName
p464
V\u59dc\u519b
p465
sVPYInitial
p466
VLF
p467
sVChatRoomId
p468
I0
sVIsOwner
p469
I0
sVHideInputBarFlag
p470
I0
sVEncryChatRoomId
p471
g44
sVAttrStatus
p472
I102501
sVSnsFlag
p473
I273
sVMemberCount
p474
I0
sVOwnerUin
p475
I0
sVAlias
p476
g44
sVSignature
p477
g44
sVContactFlag
p478
I1
sVNickName
p479
V\u51cc\u98ce
p480
sVRemarkPYQuanPin
p481
Vjiangjun
p482
sVHeadImgUrl
p483
V/cgi-bin/mmwebwx-bin/webwxgeticon?seq=681286005&username=@5d64537dbfe16ed47b4879a181d440f7d1e082541edb217c92f7aa8cedf52a22&skey=@crypt_c4463405_f828997f90577ab38fb847ff6f45f664
p484
sVSex
p485
I1
sVStarFriend
p486
I0
sVStatues
p487
I0
sa(dp488
VUserName
p489
V@5415c4d3f94e4fe6ccd70c10efd254b9baacaf4228b0fd60ff914cadbab3bbcd
p490
sVCity
p491
g44
sVDisplayName
p492
g44
sVUniFriend
p493
I0
sVMemberList
p494
(lp495
sVPYQuanPin
p496
VAVICII
p497
sVRemarkPYInitial
p498
VSYJ
p499
sVUin
p500
I0
sVAppAccountFlag
p501
I0
sVVerifyFlag
p502
I0
sVProvince
p503
g44
sVKeyWord
p504
g44
sVRemarkName
p505
V\u968b\u82f1\u6770
p506
sVPYInitial
p507
VAVICII
p508
sVChatRoomId
p509
I0
sVIsOwner
p510
I0
sVHideInputBarFlag
p511
I0
sVEncryChatRoomId
p512
g44
sVAttrStatus
p513
I4133
sVSnsFlag
p514
I1
sVMemberCount
p515
I0
sVOwnerUin
p516
I0
sVAlias
p517
g44
sVSignature
p518
g44
sVContactFlag
p519
I1
sVNickName
p520
VAVICII
p521
sVRemarkPYQuanPin
p522
Vsuiyingjie
p523
sVHeadImgUrl
p524
V/cgi-bin/mmwebwx-bin/webwxgeticon?seq=681220141&username=@5415c4d3f94e4fe6ccd70c10efd254b9baacaf4228b0fd60ff914cadbab3bbcd&skey=@crypt_c4463405_f828997f90577ab38fb847ff6f45f664
p525
sVSex
p526
I0
sVStarFriend
p527
I0
sVStatues
p528
I0
sa(dp529
VUserName
p530
V@bca3fd61793e3090da300b1d34309d2c6d45eee899338ca6fc6c052c91435fcc
p531
sVCity
p532
V\u5357\u660c
p533
sVDisplayName
p534
g44
sVUniFriend
p535
I0
sVMemberList
p536
(lp537
sVPYQuanPin
p538
VL
p539
sVRemarkPYInitial
p540
VLYH
p541
sVUin
p542
I0
sVAppAccountFlag
p543
I0
sVVerifyFlag
p544
I0
sVProvince
p545
V\u6c5f\u897f
p546
sVKeyWord
p547
g44
sVRemarkName
p548
V\u5218\u6c38\u6d77
p549
sVPYInitial
p550
g539
sVChatRoomId
p551
I0
sVIsOwner
p552
I0
sVHideInputBarFlag
p553
I0
sVEncryChatRoomId
p554
g44
sVAttrStatus
p555
I4197
sVSnsFlag
p556
I1
sVMemberCount
p557
I0
sVOwnerUin
p558
I0
sVAlias
p559
g44
sVSignature
p560
g44
sVContactFlag
p561
I1
sVNickName
p562
g539
sVRemarkPYQuanPin
p563
Vliuyonghai
p564
sVHeadImgUrl
p565
V/cgi-bin/mmwebwx-bin/webwxgeticon?seq=681272396&username=@bca3fd61793e3090da300b1d34309d2c6d45eee899338ca6fc6c052c91435fcc&skey=@crypt_c4463405_f828997f90577ab38fb847ff6f45f664
p566
sVSex
p567
I1
sVStarFriend
p568
I0
sVStatues
p569
I0
sa(dp570
VUserName
p571
V@d6f2b6d0b399416a8c06ad98cc2feacb38dd1dd5330611c8926ce3ec953b9533
p572
sVCity
p573
V\u54c8\u5c14\u6ee8
p574
sVDisplayName
p575
g44
sVUniFriend
p576
I0
sVMemberList
p577
(lp578
sVPYQuanPin
p579
VEN
p580
sVRemarkPYInitial
p581
VDX
p582
sVUin
p583
I0
sVAppAccountFlag
p584
I0
sVVerifyFlag
p585
I0
sVProvince
p586
V\u9ed1\u9f99\u6c5f
p587
sVKeyWord
p588
g44
sVRemarkName
p589
V\u8463\u65ed
p590
sVPYInitial
p591
VEN
p592
sVChatRoomId
p593
I0
sVIsOwner
p594
I0
sVHideInputBarFlag
p595
I0
sVEncryChatRoomId
p596
g44
sVAttrStatus
p597
I4133
sVSnsFlag
p598
I17
sVMemberCount
p599
I0
sVOwnerUin
p600
I0
sVAlias
p601
g44
sVSignature
p602
V\u6211\u5373\u662f\u6076
p603
sVContactFlag
p604
I1
sVNickName
p605
VEN
p606
sVRemarkPYQuanPin
p607
Vdongxu
p608
sVHeadImgUrl
p609
V/cgi-bin/mmwebwx-bin/webwxgeticon?seq=681297134&username=@d6f2b6d0b399416a8c06ad98cc2feacb38dd1dd5330611c8926ce3ec953b9533&skey=@crypt_c4463405_f828997f90577ab38fb847ff6f45f664
p610
sVSex
p611
I1
sVStarFriend
p612
I0
sVStatues
p613
I0
sa(dp614
VUserName
p615
V@03a52da3822e3392ca36a6daa58c3cbe891d6a221be7b53b9ab76fd54ab47a7c
p616
sVCity
p617
V\u6b66\u6c49
p618
sVDisplayName
p619
g44
sVUniFriend
p620
I0
sVMemberList
p621
(lp622
sVPYQuanPin
p623
Vwodemiguafenniyiban
p624
sVRemarkPYInitial
p625
VFK
p626
sVUin
p627
I0
sVAppAccountFlag
p628
I0
sVVerifyFlag
p629
I0
sVProvince
p630
V\u6e56\u5317
p631
sVKeyWord
p632
g44
sVRemarkName
p633
V\u4ed8\u5eb7
p634
sVPYInitial
p635
VWDMGFNYB
p636
sVChatRoomId
p637
I0
sVIsOwner
p638
I0
sVHideInputBarFlag
p639
I0
sVEncryChatRoomId
p640
g44
sVAttrStatus
p641
I98405
sVSnsFlag
p642
I49
sVMemberCount
p643
I0
sVOwnerUin
p644
I0
sVAlias
p645
g44
sVSignature
p646
g44
sVContactFlag
p647
I1
sVNickName
p648
V\u6211\u7684\u871c\u74dc\u5206\u4f60\u4e00\u534a
p649
sVRemarkPYQuanPin
p650
Vfukang
p651
sVHeadImgUrl
p652
V/cgi-bin/mmwebwx-bin/webwxgeticon?seq=681303077&username=@03a52da3822e3392ca36a6daa58c3cbe891d6a221be7b53b9ab76fd54ab47a7c&skey=@crypt_c4463405_f828997f90577ab38fb847ff6f45f664
p653
sVSex
p654
I1
sVStarFriend
p655
I0
sVStatues
p656
I0
sa(dp657
VUserName
p658
V@9b8f85c56c2736df1208ec69c6555c5618ee6f452f33832ee5dadb8ee45f4ab2
p659
sVCity
p660
V\u6df1\u5733
p661
sVDisplayName
p662
g44
sVUniFriend
p663
I0
sVMemberList
p664
(lp665
sVPYQuanPin
p666
Vwutong
p667
sVRemarkPYInitial
p668
g44
sVUin
p669
I0
sVAppAccountFlag
p670
I0
sVVerifyFlag
p671
I0
sVProvince
p672
V\u5e7f\u4e1c
p673
sVKeyWord
p674
g44
sVRemarkName
p675
g44
sVPYInitial
p676
VWT
p677
sVChatRoomId
p678
I0
sVIsOwner
p679
I0
sVHideInputBarFlag
p680
I0
sVEncryChatRoomId
p681
g44
sVAttrStatus
p682
I112743
sVSnsFlag
p683
I401
sVMemberCount
p684
I0
sVOwnerUin
p685
I0
sVAlias
p686
g44
sVSignature
p687
V\u70ed\u7231\u6f2b\u65e0\u8fb9\u9645\uff0c\u751f\u6d3b\u81ea\u6709\u5206\u5bf8 \u200b\u200b\u200b<span class="emoji emoji1f343"></span>
p688
sVContactFlag
p689
I1
sVNickName
p690
V\u5434\u5f64
p691
sVRemarkPYQuanPin
p692
g44
sVHeadImgUrl
p693
V/cgi-bin/mmwebwx-bin/webwxgeticon?seq=681309207&username=@9b8f85c56c2736df1208ec69c6555c5618ee6f452f33832ee5dadb8ee45f4ab2&skey=@crypt_c4463405_f828997f90577ab38fb847ff6f45f664
p694
sVSex
p695
I2
sVStarFriend
p696
I0
sVStatues
p697
I0
sa(dp698
VUserName
p699
V@be072cce8c688d04e71dd80ca80ac05daee3f5310e40916b4f391ad881abd55c
p700
sVCity
p701
g44
sVDisplayName
p702
g44
sVUniFriend
p703
I0
sVMemberList
p704
(lp705
sVPYQuanPin
p706
Vmianyangxiaoming
p707
sVRemarkPYInitial
p708
VZMY
p709
sVUin
p710
I0
sVAppAccountFlag
p711
I0
sVVerifyFlag
p712
I0
sVProvince
p713
g44
sVKeyWord
p714
g44
sVRemarkName
p715
V\u5f20\u660e\u7389
p716
sVPYInitial
p717
VMYXM
p718
sVChatRoomId
p719
I0
sVIsOwner
p720
I0
sVHideInputBarFlag
p721
I0
sVEncryChatRoomId
p722
g44
sVAttrStatus
p723
I134439
sVSnsFlag
p724
I273
sVMemberCount
p725
I0
sVOwnerUin
p726
I0
sVAlias
p727
g44
sVSignature
p728
VLife is beautiful\uff01
p729
sVContactFlag
p730
I1
sVNickName
p731
V\u7ef5\u7f8a\u5c0f\u660e
p732
sVRemarkPYQuanPin
p733
Vzhangmingyu
p734
sVHeadImgUrl
p735
V/cgi-bin/mmwebwx-bin/webwxgeticon?seq=681309268&username=@be072cce8c688d04e71dd80ca80ac05daee3f5310e40916b4f391ad881abd55c&skey=@crypt_c4463405_f828997f90577ab38fb847ff6f45f664
p736
sVSex
p737
I2
sVStarFriend
p738
I0
sVStatues
p739
I0
sa(dp740
VUserName
p741
V@0bbfd0cb5bbd28375886ef2fd97740b5b2d76801a619d02bc5d8e96d869cbbe9
p742
sVCity
p743
V\u54c8\u5c14\u6ee8
p744
sVDisplayName
p745
g44
sVUniFriend
p746
I0
sVMemberList
p747
(lp748
sVPYQuanPin
p749
VSTART
p750
sVRemarkPYInitial
p751
VLXB
p752
sVUin
p753
I0
sVAppAccountFlag
p754
I0
sVVerifyFlag
p755
I0
sVProvince
p756
V\u9ed1\u9f99\u6c5f
p757
sVKeyWord
p758
g44
sVRemarkName
p759
V\u674e\u5b66\u535a
p760
sVPYInitial
p761
VSTART
p762
sVChatRoomId
p763
I0
sVIsOwner
p764
I0
sVHideInputBarFlag
p765
I0
sVEncryChatRoomId
p766
g44
sVAttrStatus
p767
I233509
sVSnsFlag
p768
I273
sVMemberCount
p769
I0
sVOwnerUin
p770
I0
sVAlias
p771
g44
sVSignature
p772
VBe.   All.  You.  can. BE
p773
sVContactFlag
p774
I1
sVNickName
p775
VSTART
p776
sVRemarkPYQuanPin
p777
Vlixuebo
p778
sVHeadImgUrl
p779
V/cgi-bin/mmwebwx-bin/webwxgeticon?seq=681309636&username=@0bbfd0cb5bbd28375886ef2fd97740b5b2d76801a619d02bc5d8e96d869cbbe9&skey=@crypt_c4463405_f828997f90577ab38fb847ff6f45f664
p780
sVSex
p781
I1
sVStarFriend
p782
I0
sVStatues
p783
I0
sa(dp784
VUserName
p785
V@51458e40cbdabefb61ba7d833b744e9edd62608296258c45070735c15a846623
p786
sVCity
p787
g44
sVDisplayName
p788
g44
sVUniFriend
p789
I0
sVMemberList
p790
(lp791
sVPYQuanPin
p792
VClarenceW
p793
sVRemarkPYInitial
p794
VKYP
p795
sVUin
p796
I0
sVAppAccountFlag
p797
I0
sVVerifyFlag
p798
I0
sVProvince
p799
VAbu Dhabi
p800
sVKeyWord
p801
g44
sVRemarkName
p802
V\u5b54\u9038\u9e4f
p803
sVPYInitial
p804
VCLARENCEW
p805
sVChatRoomId
p806
I0
sVIsOwner
p807
I0
sVHideInputBarFlag
p808
I0
sVEncryChatRoomId
p809
g44
sVAttrStatus
p810
I65573
sVSnsFlag
p811
I49
sVMemberCount
p812
I0
sVOwnerUin
p813
I0
sVAlias
p814
g44
sVSignature
p815
V\u963f\u62c9\u65af\u52a0\u4e0a\u8bfe
p816
sVContactFlag
p817
I3
sVNickName
p818
VClarence.W
p819
sVRemarkPYQuanPin
p820
Vkongyipeng
p821
sVHeadImgUrl
p822
V/cgi-bin/mmwebwx-bin/webwxgeticon?seq=681309785&username=@51458e40cbdabefb61ba7d833b744e9edd62608296258c45070735c15a846623&skey=@crypt_c4463405_f828997f90577ab38fb847ff6f45f664
p823
sVSex
p824
I1
sVStarFriend
p825
I0
sVStatues
p826
I0
sa(dp827
VUserName
p828
V@2ce5786cc0572b64d27d7a1c6834cc63451c2a46d7ad7401f83e88fb979dd159
p829
sVCity
p830
V\u54c8\u5c14\u6ee8
p831
sVDisplayName
p832
g44
sVUniFriend
p833
I0
sVMemberList
p834
(lp835
sVPYQuanPin
p836
Vspanclassemojiemoji1f5fdspanspanclassemojiemoji1f5fdspanspanclassemojiemoji1f5fdspan
p837
sVRemarkPYInitial
p838
VLYN
p839
sVUin
p840
I0
sVAppAccountFlag
p841
I0
sVVerifyFlag
p842
I0
sVProvince
p843
V\u9ed1\u9f99\u6c5f
p844
sVKeyWord
p845
g44
sVRemarkName
p846
V\u674e\u4e9a\u7537
p847
sVPYInitial
p848
VSPANCLASSEMOJIEMOJI1F5FDSPANSPANCLASSEMOJIEMOJI1F5FDSPANSPANCLASSEMOJIEMOJI1F5FDSPAN
p849
sVChatRoomId
p850
I0
sVIsOwner
p851
I0
sVHideInputBarFlag
p852
I0
sVEncryChatRoomId
p853
g44
sVAttrStatus
p854
I102437
sVSnsFlag
p855
I305
sVMemberCount
p856
I0
sVOwnerUin
p857
I0
sVAlias
p858
g44
sVSignature
p859
V\u751c\u7684\u50cf\u7cd6 \u70c8\u7684\u50cf\u67aa
p860
sVContactFlag
p861
I1
sVNickName
p862
V\U0001f5fd\U0001f5fd\U0001f5fd
p863
sVRemarkPYQuanPin
p864
Vliyanan
p865
sVHeadImgUrl
p866
V/cgi-bin/mmwebwx-bin/webwxgeticon?seq=681308204&username=@2ce5786cc0572b64d27d7a1c6834cc63451c2a46d7ad7401f83e88fb979dd159&skey=@crypt_c4463405_f828997f90577ab38fb847ff6f45f664
p867
sVSex
p868
I2
sVStarFriend
p869
I0
sVStatues
p870
I0
sa(dp871
VUserName
p872
V@8b6f376a73ee922cb3159e92e00107d71bed421036f1d1fe26c176e929782c9c
p873
sVCity
p874
V\u54c8\u5c14\u6ee8
p875
sVDisplayName
p876
g44
sVUniFriend
p877
I0
sVMemberList
p878
(lp879
sVPYQuanPin
p880
Vzhaopeichen
p881
sVRemarkPYInitial
p882
VZPC
p883
sVUin
p884
I0
sVAppAccountFlag
p885
I0
sVVerifyFlag
p886
I0
sVProvince
p887
V\u9ed1\u9f99\u6c5f
p888
sVKeyWord
p889
g44
sVRemarkName
p890
V\u8d75\u57f9\u8fb0
p891
sVPYInitial
p892
VZPC
p893
sVChatRoomId
p894
I0
sVIsOwner
p895
I0
sVHideInputBarFlag
p896
I0
sVEncryChatRoomId
p897
g44
sVAttrStatus
p898
I102501
sVSnsFlag
p899
I1
sVMemberCount
p900
I0
sVOwnerUin
p901
I0
sVAlias
p902
g44
sVSignature
p903
g44
sVContactFlag
p904
I1
sVNickName
p905
V\u8d75\u57f9\u8fb0
p906
sVRemarkPYQuanPin
p907
Vzhaopeichen
p908
sVHeadImgUrl
p909
V/cgi-bin/mmwebwx-bin/webwxgeticon?seq=681312151&username=@8b6f376a73ee922cb3159e92e00107d71bed421036f1d1fe26c176e929782c9c&skey=@crypt_c4463405_f828997f90577ab38fb847ff6f45f664
p910
sVSex
p911
I1
sVStarFriend
p912
I0
sVStatues
p913
I0
sa(dp914
VUserName
p915
V@d694f751127f85606367d7e76f7b76f9fa5e23ebd22a60c4619ee7111ab32b73
p916
sVCity
p917
g44
sVDisplayName
p918
g44
sVUniFriend
p919
I0
sVMemberList
p920
(lp921
sVPYQuanPin
p922
VCyl
p923
sVRemarkPYInitial
p924
VCYL
p925
sVUin
p926
I0
sVAppAccountFlag
p927
I0
sVVerifyFlag
p928
I0
sVProvince
p929
g44
sVKeyWord
p930
g44
sVRemarkName
p931
V\u8521\u9896\u9f99
p932
sVPYInitial
p933
VCYL
p934
sVChatRoomId
p935
I0
sVIsOwner
p936
I0
sVHideInputBarFlag
p937
I0
sVEncryChatRoomId
p938
g44
sVAttrStatus
p939
I104637
sVSnsFlag
p940
I273
sVMemberCount
p941
I0
sVOwnerUin
p942
I0
sVAlias
p943
g44
sVSignature
p944
g44
sVContactFlag
p945
I1
sVNickName
p946
VCyl
p947
sVRemarkPYQuanPin
p948
Vcaiyinglong
p949
sVHeadImgUrl
p950
V/cgi-bin/mmwebwx-bin/webwxgeticon?seq=681282878&username=@d694f751127f85606367d7e76f7b76f9fa5e23ebd22a60c4619ee7111ab32b73&skey=@crypt_c4463405_f828997f90577ab38fb847ff6f45f664
p951
sVSex
p952
I1
sVStarFriend
p953
I0
sVStatues
p954
I0
sa(dp955
VUserName
p956
V@b7d9034b5e89d9beab9bb9c1da015f398005cbd98372245bc4b5c7630de099e3
p957
sVCity
p958
V\u6b66\u6c49
p959
sVDisplayName
p960
g44
sVUniFriend
p961
I0
sVMemberList
p962
(lp963
sVPYQuanPin
p964
Vshixie
p965
sVRemarkPYInitial
p966
VMGS
p967
sVUin
p968
I0
sVAppAccountFlag
p969
I0
sVVerifyFlag
p970
I0
sVProvince
p971
V\u6e56\u5317
p972
sVKeyWord
p973
g44
sVRemarkName
p974
V\u7f2a\u5149\u7855
p975
sVPYInitial
p976
VSX
p977
sVChatRoomId
p978
I0
sVIsOwner
p979
I0
sVHideInputBarFlag
p980
I0
sVEncryChatRoomId
p981
g44
sVAttrStatus
p982
I102501
sVSnsFlag
p983
I1
sVMemberCount
p984
I0
sVOwnerUin
p985
I0
sVAlias
p986
g44
sVSignature
p987
V\u4f60\u7684\u4fe1\u4ef0\u5c31\u662f\u6211\u7684\u4eba\u751f\u65b9\u5411\u3002
p988
sVContactFlag
p989
I1
sVNickName
p990
V\u77f3\u9875
p991
sVRemarkPYQuanPin
p992
Vmiaoguangshuo
p993
sVHeadImgUrl
p994
V/cgi-bin/mmwebwx-bin/webwxgeticon?seq=681312786&username=@b7d9034b5e89d9beab9bb9c1da015f398005cbd98372245bc4b5c7630de099e3&skey=@crypt_c4463405_f828997f90577ab38fb847ff6f45f664
p995
sVSex
p996
I1
sVStarFriend
p997
I0
sVStatues
p998
I0
sa(dp999
VUserName
p1000
V@b8d64b4a43f8ac77972470e408973328
p1001
sVCity
p1002
g44
sVDisplayName
p1003
g44
sVUniFriend
p1004
I0
sVMemberList
p1005
(lp1006
sVPYQuanPin
p1007
Vsuyelou
p1008
sVRemarkPYInitial
p1009
VSYL
p1010
sVUin
p1011
I0
sVAppAccountFlag
p1012
I0
sVVerifyFlag
p1013
I0
sVProvince
p1014
V\u5317\u4eac
p1015
sVKeyWord
p1016
Vsuy
p1017
sVRemarkName
p1018
V\u5bbf\u53f6\u9732
p1019
sVPYInitial
p1020
VSYL
p1021
sVChatRoomId
p1022
I0
sVIsOwner
p1023
I0
sVHideInputBarFlag
p1024
I0
sVEncryChatRoomId
p1025
g44
sVAttrStatus
p1026
I104959
sVSnsFlag
p1027
I17
sVMemberCount
p1028
I0
sVOwnerUin
p1029
I0
sVAlias
p1030
g44
sVSignature
p1031
V\u4eba\u603b\u662f\u82b1\u5f88\u957f\u65f6\u95f4\u8ff7\u832b,\u7528\u51e0\u4e2a\u77ac\u95f4\u6210\u957f\u3002
p1032
sVContactFlag
p1033
I1
sVNickName
p1034
V\u5bbf\u53f6\u9732
p1035
sVRemarkPYQuanPin
p1036
Vsuyelou
p1037
sVHeadImgUrl
p1038
V/cgi-bin/mmwebwx-bin/webwxgeticon?seq=681281399&username=@b8d64b4a43f8ac77972470e408973328&skey=@crypt_c4463405_f828997f90577ab38fb847ff6f45f664
p1039
sVSex
p1040
I1
sVStarFriend
p1041
I0
sVStatues
p1042
I0
sa(dp1043
VUserName
p1044
V@75482c59ec319424f41aa74e17e53eaecc003af47554961529d2fd0e11678087
p1045
sVCity
p1046
g44
sVDisplayName
p1047
g44
sVUniFriend
p1048
I0
sVMemberList
p1049
(lp1050
sVPYQuanPin
p1051
Valilyn
p1052
sVRemarkPYInitial
p1053
VLY
p1054
sVUin
p1055
I0
sVAppAccountFlag
p1056
I0
sVVerifyFlag
p1057
I0
sVProvince
p1058
g44
sVKeyWord
p1059
g44
sVRemarkName
p1060
V\u5362\u7fbd
p1061
sVPYInitial
p1062
VALILYN
p1063
sVChatRoomId
p1064
I0
sVIsOwner
p1065
I0
sVHideInputBarFlag
p1066
I0
sVEncryChatRoomId
p1067
g44
sVAttrStatus
p1068
I4197
sVSnsFlag
p1069
I1
sVMemberCount
p1070
I0
sVOwnerUin
p1071
I0
sVAlias
p1072
g44
sVSignature
p1073
V\u70df\u96e8\u5165\u6c5f\u5357 \u7ec6\u96e8\u843d\u7af9\u4f1e
p1074
sVContactFlag
p1075
I1
sVNickName
p1076
Valilyn
p1077
sVRemarkPYQuanPin
p1078
Vluyu
p1079
sVHeadImgUrl
p1080
V/cgi-bin/mmwebwx-bin/webwxgeticon?seq=681315048&username=@75482c59ec319424f41aa74e17e53eaecc003af47554961529d2fd0e11678087&skey=@crypt_c4463405_f828997f90577ab38fb847ff6f45f664
p1081
sVSex
p1082
I1
sVStarFriend
p1083
I0
sVStatues
p1084
I0
sa(dp1085
VUserName
p1086
V@bf5ffd3c518ce25c8be2d3c75822093f5cd4217ffda57302db332c4d891ec99b
p1087
sVCity
p1088
g44
sVDisplayName
p1089
g44
sVUniFriend
p1090
I0
sVMemberList
p1091
(lp1092
sVPYQuanPin
p1093
Vfaith
p1094
sVRemarkPYInitial
p1095
VWW
p1096
sVUin
p1097
I0
sVAppAccountFlag
p1098
I0
sVVerifyFlag
p1099
I0
sVProvince
p1100
g44
sVKeyWord
p1101
g44
sVRemarkName
p1102
V\u738b\u4f1f
p1103
sVPYInitial
p1104
VFAITH
p1105
sVChatRoomId
p1106
I0
sVIsOwner
p1107
I0
sVHideInputBarFlag
p1108
I0
sVEncryChatRoomId
p1109
g44
sVAttrStatus
p1110
I233573
sVSnsFlag
p1111
I256
sVMemberCount
p1112
I0
sVOwnerUin
p1113
I0
sVAlias
p1114
g44
sVSignature
p1115
g44
sVContactFlag
p1116
I1
sVNickName
p1117
Vfaith
p1118
sVRemarkPYQuanPin
p1119
Vwangwei
p1120
sVHeadImgUrl
p1121
V/cgi-bin/mmwebwx-bin/webwxgeticon?seq=681319482&username=@bf5ffd3c518ce25c8be2d3c75822093f5cd4217ffda57302db332c4d891ec99b&skey=@crypt_c4463405_f828997f90577ab38fb847ff6f45f664
p1122
sVSex
p1123
I1
sVStarFriend
p1124
I0
sVStatues
p1125
I0
sa(dp1126
VUserName
p1127
V@292c22f118b033b9053f5e7e11995e683af66e1c7949ce6c238d37d1aa3a63eb
p1128
sVCity
p1129
g44
sVDisplayName
p1130
g44
sVUniFriend
p1131
I0
sVMemberList
p1132
(lp1133
sVPYQuanPin
p1134
Vmahaojun
p1135
sVRemarkPYInitial
p1136
VMHJ
p1137
sVUin
p1138
I0
sVAppAccountFlag
p1139
I0
sVVerifyFlag
p1140
I0
sVProvince
p1141
g44
sVKeyWord
p1142
g44
sVRemarkName
p1143
V\u9a6c\u6d69\u94a7
p1144
sVPYInitial
p1145
VMHJ
p1146
sVChatRoomId
p1147
I0
sVIsOwner
p1148
I0
sVHideInputBarFlag
p1149
I0
sVEncryChatRoomId
p1150
g44
sVAttrStatus
p1151
I102501
sVSnsFlag
p1152
I257
sVMemberCount
p1153
I0
sVOwnerUin
p1154
I0
sVAlias
p1155
g44
sVSignature
p1156
g44
sVContactFlag
p1157
I1
sVNickName
p1158
V\u9a6c\u6d69\u94a7
p1159
sVRemarkPYQuanPin
p1160
Vmahaojun
p1161
sVHeadImgUrl
p1162
V/cgi-bin/mmwebwx-bin/webwxgeticon?seq=681320212&username=@292c22f118b033b9053f5e7e11995e683af66e1c7949ce6c238d37d1aa3a63eb&skey=@crypt_c4463405_f828997f90577ab38fb847ff6f45f664
p1163
sVSex
p1164
I0
sVStarFriend
p1165
I0
sVStatues
p1166
I0
sa(dp1167
VUserName
p1168
V@eea0d5d4a68ae123c7547c4236da9b85164881c5783bebcb4e4ac97629f2a085
p1169
sVCity
p1170
V\u4f73\u6728\u65af
p1171
sVDisplayName
p1172
g44
sVUniFriend
p1173
I0
sVMemberList
p1174
(lp1175
sVPYQuanPin
p1176
Vhaizeikejijisuanjijiaoyupeixun
p1177
sVRemarkPYInitial
p1178
VYFZ
p1179
sVUin
p1180
I0
sVAppAccountFlag
p1181
I0
sVVerifyFlag
p1182
I0
sVProvince
p1183
V\u9ed1\u9f99\u6c5f
p1184
sVKeyWord
p1185
g44
sVRemarkName
p1186
V\u4e8e\u65b9\u6cfd
p1187
sVPYInitial
p1188
VHZKJJSJJYPX
p1189
sVChatRoomId
p1190
I0
sVIsOwner
p1191
I0
sVHideInputBarFlag
p1192
I0
sVEncryChatRoomId
p1193
g44
sVAttrStatus
p1194
I102501
sVSnsFlag
p1195
I257
sVMemberCount
p1196
I0
sVOwnerUin
p1197
I0
sVAlias
p1198
g44
sVSignature
p1199
V\uff5e\uff5e\uff5e
p1200
sVContactFlag
p1201
I1
sVNickName
p1202
V\u6d77\u8d3c\u79d1\u6280\u8ba1\u7b97\u673a\u6559\u80b2\u57f9\u8bad
p1203
sVRemarkPYQuanPin
p1204
Vyufangze
p1205
sVHeadImgUrl
p1206
V/cgi-bin/mmwebwx-bin/webwxgeticon?seq=681320309&username=@eea0d5d4a68ae123c7547c4236da9b85164881c5783bebcb4e4ac97629f2a085&skey=@crypt_c4463405_f828997f90577ab38fb847ff6f45f664
p1207
sVSex
p1208
I1
sVStarFriend
p1209
I0
sVStatues
p1210
I0
sa(dp1211
VUserName
p1212
V@29c8308a1f00276b4d751f2c8e6210c4e790f30ea4afa6d29009baf511a6633b
p1213
sVCity
p1214
VWhite Plains
p1215
sVDisplayName
p1216
g44
sVUniFriend
p1217
I0
sVMemberList
p1218
(lp1219
sVPYQuanPin
p1220
Vnameless
p1221
sVRemarkPYInitial
p1222
VRC
p1223
sVUin
p1224
I0
sVAppAccountFlag
p1225
I0
sVVerifyFlag
p1226
I0
sVProvince
p1227
VNew York
p1228
sVKeyWord
p1229
g44
sVRemarkName
p1230
V\u4efb\u91cd
p1231
sVPYInitial
p1232
VNAMELESS
p1233
sVChatRoomId
p1234
I0
sVIsOwner
p1235
I0
sVHideInputBarFlag
p1236
I0
sVEncryChatRoomId
p1237
g44
sVAttrStatus
p1238
I33689893
sVSnsFlag
p1239
I257
sVMemberCount
p1240
I0
sVOwnerUin
p1241
I0
sVAlias
p1242
g44
sVSignature
p1243
g44
sVContactFlag
p1244
I1
sVNickName
p1245
Vnameless
p1246
sVRemarkPYQuanPin
p1247
Vrenchong
p1248
sVHeadImgUrl
p1249
V/cgi-bin/mmwebwx-bin/webwxgeticon?seq=681320976&username=@29c8308a1f00276b4d751f2c8e6210c4e790f30ea4afa6d29009baf511a6633b&skey=@crypt_c4463405_f828997f90577ab38fb847ff6f45f664
p1250
sVSex
p1251
I0
sVStarFriend
p1252
I0
sVStatues
p1253
I0
sa(dp1254
VUserName
p1255
V@5bb534c9a04c1f39d9858b67f351edc4c489e6175a0f92897a5690418d70d7df
p1256
sVCity
p1257
V\u83cf\u6cfd
p1258
sVDisplayName
p1259
g44
sVUniFriend
p1260
I0
sVMemberList
p1261
(lp1262
sVPYQuanPin
p1263
VNite
p1264
sVRemarkPYInitial
p1265
VXYR
p1266
sVUin
p1267
I0
sVAppAccountFlag
p1268
I0
sVVerifyFlag
p1269
I0
sVProvince
p1270
V\u5c71\u4e1c
p1271
sVKeyWord
p1272
g44
sVRemarkName
p1273
V\u595a\u8273\u8363
p1274
sVPYInitial
p1275
VNITE
p1276
sVChatRoomId
p1277
I0
sVIsOwner
p1278
I0
sVHideInputBarFlag
p1279
I0
sVEncryChatRoomId
p1280
g44
sVAttrStatus
p1281
I102501
sVSnsFlag
p1282
I257
sVMemberCount
p1283
I0
sVOwnerUin
p1284
I0
sVAlias
p1285
g44
sVSignature
p1286
V\u6240\u4ee5\u73b0\u5728\u8981\u505a\u81ea\u5df1\u7684\u4e8b\u4e86
p1287
sVContactFlag
p1288
I1
sVNickName
p1289
VNite
p1290
sVRemarkPYQuanPin
p1291
Vxiyanrong
p1292
sVHeadImgUrl
p1293
V/cgi-bin/mmwebwx-bin/webwxgeticon?seq=681321158&username=@5bb534c9a04c1f39d9858b67f351edc4c489e6175a0f92897a5690418d70d7df&skey=@crypt_c4463405_f828997f90577ab38fb847ff6f45f664
p1294
sVSex
p1295
I2
sVStarFriend
p1296
I0
sVStatues
p1297
I0
sa(dp1298
VUserName
p1299
V@07965213b02414eaa3c95558c6311a2942a0b2128273aa837f131ef173f736b0
p1300
sVCity
p1301
V\u6df1\u5733
p1302
sVDisplayName
p1303
g44
sVUniFriend
p1304
I0
sVMemberList
p1305
(lp1306
sVPYQuanPin
p1307
Vzhangxiaobaibubai
p1308
sVRemarkPYInitial
p1309
VZXT
p1310
sVUin
p1311
I0
sVAppAccountFlag
p1312
I0
sVVerifyFlag
p1313
I0
sVProvince
p1314
V\u5e7f\u4e1c
p1315
sVKeyWord
p1316
Vzha
p1317
sVRemarkName
p1318
V\u5f20\u96ea\u6d9b
p1319
sVPYInitial
p1320
VZXBBB
p1321
sVChatRoomId
p1322
I0
sVIsOwner
p1323
I0
sVHideInputBarFlag
p1324
I0
sVEncryChatRoomId
p1325
g44
sVAttrStatus
p1326
I112743
sVSnsFlag
p1327
I17
sVMemberCount
p1328
I0
sVOwnerUin
p1329
I0
sVAlias
p1330
g44
sVSignature
p1331
V\u76f8\u805a\u6709\u65f6\uff0c\u540e\u4f1a\u65e0\u671f
p1332
sVContactFlag
p1333
I1
sVNickName
p1334
V\u5f20\u5c0f\u767d\u4e0d\u767d
p1335
sVRemarkPYQuanPin
p1336
Vzhangxuetao
p1337
sVHeadImgUrl
p1338
V/cgi-bin/mmwebwx-bin/webwxgeticon?seq=681320775&username=@07965213b02414eaa3c95558c6311a2942a0b2128273aa837f131ef173f736b0&skey=@crypt_c4463405_f828997f90577ab38fb847ff6f45f664
p1339
sVSex
p1340
I1
sVStarFriend
p1341
I0
sVStatues
p1342
I0
sa(dp1343
VUserName
p1344
V@c1d79b7abf6906c2a09080a6453d46dae272fdb183b51167734b524bf174e834
p1345
sVCity
p1346
g44
sVDisplayName
p1347
g44
sVUniFriend
p1348
I0
sVMemberList
p1349
(lp1350
sVPYQuanPin
p1351
Vluanlongsheng
p1352
sVRemarkPYInitial
p1353
VLLS
p1354
sVUin
p1355
I0
sVAppAccountFlag
p1356
I0
sVVerifyFlag
p1357
I0
sVProvince
p1358
VHamburg
p1359
sVKeyWord
p1360
g44
sVRemarkName
p1361
V\u683e\u9f99\u751f
p1362
sVPYInitial
p1363
VLLS
p1364
sVChatRoomId
p1365
I0
sVIsOwner
p1366
I0
sVHideInputBarFlag
p1367
I0
sVEncryChatRoomId
p1368
g44
sVAttrStatus
p1369
I98597
sVSnsFlag
p1370
I1
sVMemberCount
p1371
I0
sVOwnerUin
p1372
I0
sVAlias
p1373
g44
sVSignature
p1374
V\u4e7e\u5764\u672a\u5b9a \u4f60\u6211\u7686\u9ed1\u9a6c<span class="emoji emoji1f4aa"></span>\U0001f3ff
p1375
sVContactFlag
p1376
I1
sVNickName
p1377
V\u683e\u9f99\u751f
p1378
sVRemarkPYQuanPin
p1379
Vluanlongsheng
p1380
sVHeadImgUrl
p1381
V/cgi-bin/mmwebwx-bin/webwxgeticon?seq=681294452&username=@c1d79b7abf6906c2a09080a6453d46dae272fdb183b51167734b524bf174e834&skey=@crypt_c4463405_f828997f90577ab38fb847ff6f45f664
p1382
sVSex
p1383
I1
sVStarFriend
p1384
I0
sVStatues
p1385
I0
sa(dp1386
VUserName
p1387
V@d278589dd566ff3648853f656558e93549ef0b16ac1fb556a273a19da85ae47d
p1388
sVCity
p1389
V\u6b66\u6c49
p1390
sVDisplayName
p1391
g44
sVUniFriend
p1392
I0
sVMemberList
p1393
(lp1394
sVPYQuanPin
p1395
VBRian
p1396
sVRemarkPYInitial
p1397
VXF
p1398
sVUin
p1399
I0
sVAppAccountFlag
p1400
I0
sVVerifyFlag
p1401
I0
sVProvince
p1402
V\u6e56\u5317
p1403
sVKeyWord
p1404
g44
sVRemarkName
p1405
V\u8bb8\u4e30
p1406
sVPYInitial
p1407
VBRIAN
p1408
sVChatRoomId
p1409
I0
sVIsOwner
p1410
I0
sVHideInputBarFlag
p1411
I0
sVEncryChatRoomId
p1412
g44
sVAttrStatus
p1413
I33558885
sVSnsFlag
p1414
I0
sVMemberCount
p1415
I0
sVOwnerUin
p1416
I0
sVAlias
p1417
g44
sVSignature
p1418
g44
sVContactFlag
p1419
I1
sVNickName
p1420
VBRian
p1421
sVRemarkPYQuanPin
p1422
Vxufeng
p1423
sVHeadImgUrl
p1424
V/cgi-bin/mmwebwx-bin/webwxgeticon?seq=681323550&username=@d278589dd566ff3648853f656558e93549ef0b16ac1fb556a273a19da85ae47d&skey=@crypt_c4463405_f828997f90577ab38fb847ff6f45f664
p1425
sVSex
p1426
I1
sVStarFriend
p1427
I0
sVStatues
p1428
I0
sa(dp1429
VUserName
p1430
V@a53614f03dd741b7b8d976578a10f0d9992083a274759b3acce497bc5c72df4b
p1431
sVCity
p1432
V\u6e05\u8fdc
p1433
sVDisplayName
p1434
g44
sVUniFriend
p1435
I0
sVMemberList
p1436
(lp1437
sVPYQuanPin
p1438
VHWQ
p1439
sVRemarkPYInitial
p1440
VHWQ
p1441
sVUin
p1442
I0
sVAppAccountFlag
p1443
I0
sVVerifyFlag
p1444
I0
sVProvince
p1445
V\u5e7f\u4e1c
p1446
sVKeyWord
p1447
g44
sVRemarkName
p1448
V\u9ec4\u709c\u94e8
p1449
sVPYInitial
p1450
VHWQ
p1451
sVChatRoomId
p1452
I0
sVIsOwner
p1453
I0
sVHideInputBarFlag
p1454
I0
sVEncryChatRoomId
p1455
g44
sVAttrStatus
p1456
I4197
sVSnsFlag
p1457
I273
sVMemberCount
p1458
I0
sVOwnerUin
p1459
I0
sVAlias
p1460
g44
sVSignature
p1461
g44
sVContactFlag
p1462
I1
sVNickName
p1463
VHWQ
p1464
sVRemarkPYQuanPin
p1465
Vhuangweiquan
p1466
sVHeadImgUrl
p1467
V/cgi-bin/mmwebwx-bin/webwxgeticon?seq=681308826&username=@a53614f03dd741b7b8d976578a10f0d9992083a274759b3acce497bc5c72df4b&skey=@crypt_c4463405_f828997f90577ab38fb847ff6f45f664
p1468
sVSex
p1469
I1
sVStarFriend
p1470
I0
sVStatues
p1471
I0
sa(dp1472
VUserName
p1473
V@ee330c7c933691bc4cd1d68be6ff7fa76aea2ddef239839d78561d516cd6333d
p1474
sVCity
p1475
V\u54c8\u5c14\u6ee8
p1476
sVDisplayName
p1477
g44
sVUniFriend
p1478
I0
sVMemberList
p1479
(lp1480
sVPYQuanPin
p1481
Vspanclassemojiemoji1f42cspan
p1482
sVRemarkPYInitial
p1483
VYYQ
p1484
sVUin
p1485
I0
sVAppAccountFlag
p1486
I0
sVVerifyFlag
p1487
I0
sVProvince
p1488
V\u9ed1\u9f99\u6c5f
p1489
sVKeyWord
p1490
Vxia
p1491
sVRemarkName
p1492
V\u95eb\u96e8\u6674
p1493
sVPYInitial
p1494
VSPANCLASSEMOJIEMOJI1F42CSPAN
p1495
sVChatRoomId
p1496
I0
sVIsOwner
p1497
I0
sVHideInputBarFlag
p1498
I0
sVEncryChatRoomId
p1499
g44
sVAttrStatus
p1500
I99775
sVSnsFlag
p1501
I305
sVMemberCount
p1502
I0
sVOwnerUin
p1503
I0
sVAlias
p1504
g44
sVSignature
p1505
V\u61c2\u4e8b \u6709\u8da3 \u4fdd\u6301\u7406\u667a
p1506
sVContactFlag
p1507
I1
sVNickName
p1508
V\U0001f42c
p1509
sVRemarkPYQuanPin
p1510
Vyanyuqing
p1511
sVHeadImgUrl
p1512
V/cgi-bin/mmwebwx-bin/webwxgeticon?seq=681320995&username=@ee330c7c933691bc4cd1d68be6ff7fa76aea2ddef239839d78561d516cd6333d&skey=@crypt_c4463405_f828997f90577ab38fb847ff6f45f664
p1513
sVSex
p1514
I2
sVStarFriend
p1515
I0
sVStatues
p1516
I0
sa(dp1517
VUserName
p1518
V@f5295e7fd7931dea5b807a548202c029a3c25a22bef1cedbc562cdfb5fb960b5
p1519
sVCity
p1520
g44
sVDisplayName
p1521
g44
sVUniFriend
p1522
I0
sVMemberList
p1523
(lp1524
sVPYQuanPin
p1525
Vdaayao?
p1526
sVRemarkPYInitial
p1527
VYY
p1528
sVUin
p1529
I0
sVAppAccountFlag
p1530
I0
sVVerifyFlag
p1531
I0
sVProvince
p1532
g44
sVKeyWord
p1533
g44
sVRemarkName
p1534
V\u59da\u5b87
p1535
sVPYInitial
p1536
VDAY?
p1537
sVChatRoomId
p1538
I0
sVIsOwner
p1539
I0
sVHideInputBarFlag
p1540
I0
sVEncryChatRoomId
p1541
g44
sVAttrStatus
p1542
I2181140965
sVSnsFlag
p1543
I1
sVMemberCount
p1544
I0
sVOwnerUin
p1545
I0
sVAlias
p1546
g44
sVSignature
p1547
g44
sVContactFlag
p1548
I1
sVNickName
p1549
V\u5927\u963f\u59da \U0001f914
p1550
sVRemarkPYQuanPin
p1551
Vyaoyu
p1552
sVHeadImgUrl
p1553
V/cgi-bin/mmwebwx-bin/webwxgeticon?seq=681323806&username=@f5295e7fd7931dea5b807a548202c029a3c25a22bef1cedbc562cdfb5fb960b5&skey=@crypt_c4463405_f828997f90577ab38fb847ff6f45f664
p1554
sVSex
p1555
I1
sVStarFriend
p1556
I0
sVStatues
p1557
I0
sa(dp1558
VUserName
p1559
V@36b8038200a81b3a70cce2a15ca7abc8
p1560
sVCity
p1561
V\u6210\u90fd
p1562
sVDisplayName
p1563
g44
sVUniFriend
p1564
I0
sVMemberList
p1565
(lp1566
sVPYQuanPin
p1567
Vrrrainbow
p1568
sVRemarkPYInitial
p1569
VDG
p1570
sVUin
p1571
I0
sVAppAccountFlag
p1572
I0
sVVerifyFlag
p1573
I0
sVProvince
p1574
V\u56db\u5ddd
p1575
sVKeyWord
p1576
Vzha
p1577
sVRemarkName
p1578
V\u4ee3\u8d2d
p1579
sVPYInitial
p1580
VRRRAINBOW
p1581
sVChatRoomId
p1582
I0
sVIsOwner
p1583
I0
sVHideInputBarFlag
p1584
I0
sVEncryChatRoomId
p1585
g44
sVAttrStatus
p1586
I104485
sVSnsFlag
p1587
I49
sVMemberCount
p1588
I0
sVOwnerUin
p1589
I0
sVAlias
p1590
g44
sVSignature
p1591
V\U0001f984\ufe0f
p1592
sVContactFlag
p1593
I1
sVNickName
p1594
Vrrrainbow_
p1595
sVRemarkPYQuanPin
p1596
Vdaigou
p1597
sVHeadImgUrl
p1598
V/cgi-bin/mmwebwx-bin/webwxgeticon?seq=681269228&username=@36b8038200a81b3a70cce2a15ca7abc8&skey=@crypt_c4463405_f828997f90577ab38fb847ff6f45f664
p1599
sVSex
p1600
I2
sVStarFriend
p1601
I0
sVStatues
p1602
I0
sa(dp1603
VUserName
p1604
V@88466148ffc22b9640c888a4d2e18912469e3430783e0b00ded08b5c0268b41e
p1605
sVCity
p1606
V\u6b66\u6c49
p1607
sVDisplayName
p1608
g44
sVUniFriend
p1609
I0
sVMemberList
p1610
(lp1611
sVPYQuanPin
p1612
Vchengfengpolang
p1613
sVRemarkPYInitial
p1614
VJ
p1615
sVUin
p1616
I0
sVAppAccountFlag
p1617
I0
sVVerifyFlag
p1618
I0
sVProvince
p1619
V\u6e56\u5317
p1620
sVKeyWord
p1621
g44
sVRemarkName
p1622
V\u8205
p1623
sVPYInitial
p1624
VCFPL
p1625
sVChatRoomId
p1626
I0
sVIsOwner
p1627
I0
sVHideInputBarFlag
p1628
I0
sVEncryChatRoomId
p1629
g44
sVAttrStatus
p1630
I69733
sVSnsFlag
p1631
I17
sVMemberCount
p1632
I0
sVOwnerUin
p1633
I0
sVAlias
p1634
g44
sVSignature
p1635
V\u4eba\u95f4\u767e\u79cd\u6c79\u6d8c\uff0c\u603b\u6709\u6765\u7531\u3002\u547d\u4e2d\u4e07\u822c\u5386\u7ec3\uff0c\u7686\u662f\u9020\u5316\u3002
p1636
sVContactFlag
p1637
I1
sVNickName
p1638
V\u4e58\u98ce\u7834\u6d6a
p1639
sVRemarkPYQuanPin
p1640
Vjiu
p1641
sVHeadImgUrl
p1642
V/cgi-bin/mmwebwx-bin/webwxgeticon?seq=681285016&username=@88466148ffc22b9640c888a4d2e18912469e3430783e0b00ded08b5c0268b41e&skey=@crypt_c4463405_f828997f90577ab38fb847ff6f45f664
p1643
sVSex
p1644
I1
sVStarFriend
p1645
I0
sVStatues
p1646
I0
sa(dp1647
VUserName
p1648
V@66cf65510d66720113f295e50478c434ab8e7462adfaf93687809dc1ae08004f
p1649
sVCity
p1650
g44
sVDisplayName
p1651
g44
sVUniFriend
p1652
I0
sVMemberList
p1653
(lp1654
sVPYQuanPin
p1655
Vliaoweiyi
p1656
sVRemarkPYInitial
p1657
VLWY
p1658
sVUin
p1659
I0
sVAppAccountFlag
p1660
I0
sVVerifyFlag
p1661
I0
sVProvince
p1662
g44
sVKeyWord
p1663
g44
sVRemarkName
p1664
V\u5ed6\u851a\u4e00
p1665
sVPYInitial
p1666
VLWY
p1667
sVChatRoomId
p1668
I0
sVIsOwner
p1669
I0
sVHideInputBarFlag
p1670
I0
sVEncryChatRoomId
p1671
g44
sVAttrStatus
p1672
I102437
sVSnsFlag
p1673
I0
sVMemberCount
p1674
I0
sVOwnerUin
p1675
I0
sVAlias
p1676
g44
sVSignature
p1677
g44
sVContactFlag
p1678
I1
sVNickName
p1679
V\u5ed6\u851a\u4e00
p1680
sVRemarkPYQuanPin
p1681
Vliaoweiyi
p1682
sVHeadImgUrl
p1683
V/cgi-bin/mmwebwx-bin/webwxgeticon?seq=681310592&username=@66cf65510d66720113f295e50478c434ab8e7462adfaf93687809dc1ae08004f&skey=@crypt_c4463405_f828997f90577ab38fb847ff6f45f664
p1684
sVSex
p1685
I2
sVStarFriend
p1686
I0
sVStatues
p1687
I0
sa(dp1688
VUserName
p1689
V@187d55da7a0a06d3022177fcf87e5dd45cf58cc541a735c175ca029dc6d2b16b
p1690
sVCity
p1691
g44
sVDisplayName
p1692
g44
sVUniFriend
p1693
I0
sVMemberList
p1694
(lp1695
sVPYQuanPin
p1696
VRename
p1697
sVRemarkPYInitial
p1698
VLWZ
p1699
sVUin
p1700
I0
sVAppAccountFlag
p1701
I0
sVVerifyFlag
p1702
I0
sVProvince
p1703
g44
sVKeyWord
p1704
g44
sVRemarkName
p1705
V\u5ed6\u536b\u653f
p1706
sVPYInitial
p1707
VRENAME
p1708
sVChatRoomId
p1709
I0
sVIsOwner
p1710
I0
sVHideInputBarFlag
p1711
I0
sVEncryChatRoomId
p1712
g44
sVAttrStatus
p1713
I106599
sVSnsFlag
p1714
I273
sVMemberCount
p1715
I0
sVOwnerUin
p1716
I0
sVAlias
p1717
g44
sVSignature
p1718
V\u5df1\u6240\u4e0d\u6b32\uff0c\u52ff\u65bd\u4e8e\u4eba
p1719
sVContactFlag
p1720
I1
sVNickName
p1721
VRename
p1722
sVRemarkPYQuanPin
p1723
Vliaoweizheng
p1724
sVHeadImgUrl
p1725
V/cgi-bin/mmwebwx-bin/webwxgeticon?seq=681314753&username=@187d55da7a0a06d3022177fcf87e5dd45cf58cc541a735c175ca029dc6d2b16b&skey=@crypt_c4463405_f828997f90577ab38fb847ff6f45f664
p1726
sVSex
p1727
I1
sVStarFriend
p1728
I0
sVStatues
p1729
I0
sa(dp1730
VUserName
p1731
V@3a90b1e487b52fee0d7ebbbf3bf2db0a31729027f8516da80d113291b91865de
p1732
sVCity
p1733
g44
sVDisplayName
p1734
g44
sVUniFriend
p1735
I0
sVMemberList
p1736
(lp1737
sVPYQuanPin
p1738
VDevilorAngelyan
p1739
sVRemarkPYInitial
p1740
VTZY
p1741
sVUin
p1742
I0
sVAppAccountFlag
p1743
I0
sVVerifyFlag
p1744
I0
sVProvince
p1745
g44
sVKeyWord
p1746
g44
sVRemarkName
p1747
V\u6c64\u5353\u598d
p1748
sVPYInitial
p1749
VDEVILORANGELY
p1750
sVChatRoomId
p1751
I0
sVIsOwner
p1752
I0
sVHideInputBarFlag
p1753
I0
sVEncryChatRoomId
p1754
g44
sVAttrStatus
p1755
I102437
sVSnsFlag
p1756
I0
sVMemberCount
p1757
I0
sVOwnerUin
p1758
I0
sVAlias
p1759
g44
sVSignature
p1760
VBelieve   that   you   will   have   a   brilliant   day
p1761
sVContactFlag
p1762
I1
sVNickName
p1763
VDevil   or   Angel    \u598d
p1764
sVRemarkPYQuanPin
p1765
Vtangzhuoyan
p1766
sVHeadImgUrl
p1767
V/cgi-bin/mmwebwx-bin/webwxgeticon?seq=681321949&username=@3a90b1e487b52fee0d7ebbbf3bf2db0a31729027f8516da80d113291b91865de&skey=@crypt_c4463405_f828997f90577ab38fb847ff6f45f664
p1768
sVSex
p1769
I2
sVStarFriend
p1770
I0
sVStatues
p1771
I0
sa(dp1772
VUserName
p1773
V@49de217330657c0171358419e4b32f7af904df286b07bf0cd0d721a51a791280
p1774
sVCity
p1775
g44
sVDisplayName
p1776
g44
sVUniFriend
p1777
I0
sVMemberList
p1778
(lp1779
sVPYQuanPin
p1780
Vxiaochong
p1781
sVRemarkPYInitial
p1782
VY
p1783
sVUin
p1784
I0
sVAppAccountFlag
p1785
I0
sVVerifyFlag
p1786
I0
sVProvince
p1787
g44
sVKeyWord
p1788
g44
sVRemarkName
p1789
V\u59e8
p1790
sVPYInitial
p1791
VXC
p1792
sVChatRoomId
p1793
I0
sVIsOwner
p1794
I0
sVHideInputBarFlag
p1795
I0
sVEncryChatRoomId
p1796
g44
sVAttrStatus
p1797
I4133
sVSnsFlag
p1798
I257
sVMemberCount
p1799
I0
sVOwnerUin
p1800
I0
sVAlias
p1801
g44
sVSignature
p1802
g44
sVContactFlag
p1803
I1
sVNickName
p1804
V\u5c0f\u7fc0
p1805
sVRemarkPYQuanPin
p1806
Vyi
p1807
sVHeadImgUrl
p1808
V/cgi-bin/mmwebwx-bin/webwxgeticon?seq=679168990&username=@49de217330657c0171358419e4b32f7af904df286b07bf0cd0d721a51a791280&skey=@crypt_c4463405_f828997f90577ab38fb847ff6f45f664
p1809
sVSex
p1810
I0
sVStarFriend
p1811
I0
sVStatues
p1812
I0
sa(dp1813
VUserName
p1814
V@1402adce0d00729096a38ff6fc80ca24c02d0ed2b707e468afd6d49a89491a45
p1815
sVCity
p1816
V\u6b66\u6c49
p1817
sVDisplayName
p1818
g44
sVUniFriend
p1819
I0
sVMemberList
p1820
(lp1821
sVPYQuanPin
p1822
Vzengjiaguan
p1823
sVRemarkPYInitial
p1824
VYD
p1825
sVUin
p1826
I0
sVAppAccountFlag
p1827
I0
sVVerifyFlag
p1828
I0
sVProvince
p1829
V\u6e56\u5317
p1830
sVKeyWord
p1831
g44
sVRemarkName
p1832
V\u59e8\u7239
p1833
sVPYInitial
p1834
VZJG
p1835
sVChatRoomId
p1836
I0
sVIsOwner
p1837
I0
sVHideInputBarFlag
p1838
I0
sVEncryChatRoomId
p1839
g44
sVAttrStatus
p1840
I4133
sVSnsFlag
p1841
I257
sVMemberCount
p1842
I0
sVOwnerUin
p1843
I0
sVAlias
p1844
g44
sVSignature
p1845
V\u66fe\u8273\u56fd
p1846
sVContactFlag
p1847
I1
sVNickName
p1848
V\u66fe\u5609\u51a0
p1849
sVRemarkPYQuanPin
p1850
Vyidie
p1851
sVHeadImgUrl
p1852
V/cgi-bin/mmwebwx-bin/webwxgeticon?seq=681238304&username=@1402adce0d00729096a38ff6fc80ca24c02d0ed2b707e468afd6d49a89491a45&skey=@crypt_c4463405_f828997f90577ab38fb847ff6f45f664
p1853
sVSex
p1854
I1
sVStarFriend
p1855
I0
sVStatues
p1856
I0
sa(dp1857
VUserName
p1858
V@1c3403887cf84a1835b37df0439ee80d4f809d270e9a1009c31022b57f96c584
p1859
sVCity
p1860
g44
sVDisplayName
p1861
g44
sVUniFriend
p1862
I0
sVMemberList
p1863
(lp1864
sVPYQuanPin
p1865
Vyulanhuan
p1866
sVRemarkPYInitial
p1867
VTZB
p1868
sVUin
p1869
I0
sVAppAccountFlag
p1870
I0
sVVerifyFlag
p1871
I0
sVProvince
p1872
VGeneve
p1873
sVKeyWord
p1874
g44
sVRemarkName
p1875
V\u4f5f\u5fd7\u535a
p1876
sVPYInitial
p1877
VYLH
p1878
sVChatRoomId
p1879
I0
sVIsOwner
p1880
I0
sVHideInputBarFlag
p1881
I0
sVEncryChatRoomId
p1882
g44
sVAttrStatus
p1883
I105405
sVSnsFlag
p1884
I257
sVMemberCount
p1885
I0
sVOwnerUin
p1886
I0
sVAlias
p1887
g44
sVSignature
p1888
V\u521d\u65f6\u4e0d\u77e5\u66f2\u4e2d\u610f\uff0c\u518d\u95fb\u5df2\u662f\u66f2\u4e2d\u4eba
p1889
sVContactFlag
p1890
I1
sVNickName
p1891
V\u4f59\u6f9c\u6b22
p1892
sVRemarkPYQuanPin
p1893
Vtongzhibo
p1894
sVHeadImgUrl
p1895
V/cgi-bin/mmwebwx-bin/webwxgeticon?seq=681318799&username=@1c3403887cf84a1835b37df0439ee80d4f809d270e9a1009c31022b57f96c584&skey=@crypt_c4463405_f828997f90577ab38fb847ff6f45f664
p1896
sVSex
p1897
I1
sVStarFriend
p1898
I0
sVStatues
p1899
I0
sa(dp1900
VUserName
p1901
V@138be87d4f61515bcc9b25b65e7e9c75a2c70e7ae547392a5349779ba0928a5c
p1902
sVCity
p1903
g44
sVDisplayName
p1904
g44
sVUniFriend
p1905
I0
sVMemberList
p1906
(lp1907
sVPYQuanPin
p1908
Vkashazaixiangpeach
p1909
sVRemarkPYInitial
p1910
VWQ
p1911
sVUin
p1912
I0
sVAppAccountFlag
p1913
I0
sVVerifyFlag
p1914
I0
sVProvince
p1915
VMayo
p1916
sVKeyWord
p1917
g44
sVRemarkName
p1918
V\u738b\u52cd
p1919
sVPYInitial
p1920
VKSZXPEACH
p1921
sVChatRoomId
p1922
I0
sVIsOwner
p1923
I0
sVHideInputBarFlag
p1924
I0
sVEncryChatRoomId
p1925
g44
sVAttrStatus
p1926
I105405
sVSnsFlag
p1927
I257
sVMemberCount
p1928
I0
sVOwnerUin
p1929
I0
sVAlias
p1930
g44
sVSignature
p1931
V\u89c6\u7ebf\u6240\u53ca\u53ea\u5269\u751f\u6d3b
p1932
sVContactFlag
p1933
I1
sVNickName
p1934
V\u5361\u838e\u5728\u60f3peach
p1935
sVRemarkPYQuanPin
p1936
Vwangqing
p1937
sVHeadImgUrl
p1938
V/cgi-bin/mmwebwx-bin/webwxgeticon?seq=681323243&username=@138be87d4f61515bcc9b25b65e7e9c75a2c70e7ae547392a5349779ba0928a5c&skey=@crypt_c4463405_f828997f90577ab38fb847ff6f45f664
p1939
sVSex
p1940
I1
sVStarFriend
p1941
I0
sVStatues
p1942
I0
sa(dp1943
VUserName
p1944
V@ac0428e57662d447772f0aaadcab2699
p1945
sVCity
p1946
g44
sVDisplayName
p1947
g44
sVUniFriend
p1948
I0
sVMemberList
p1949
(lp1950
sVPYQuanPin
p1951
Vjiu
p1952
sVRemarkPYInitial
p1953
VYZJ
p1954
sVUin
p1955
I0
sVAppAccountFlag
p1956
I0
sVVerifyFlag
p1957
I0
sVProvince
p1958
VParis
p1959
sVKeyWord
p1960
VJea
p1961
sVRemarkName
p1962
V\u9633\u6cbb\u7396
p1963
sVPYInitial
p1964
g1615
sVChatRoomId
p1965
I0
sVIsOwner
p1966
I0
sVHideInputBarFlag
p1967
I0
sVEncryChatRoomId
p1968
g44
sVAttrStatus
p1969
I233509
sVSnsFlag
p1970
I257
sVMemberCount
p1971
I0
sVOwnerUin
p1972
I0
sVAlias
p1973
g44
sVSignature
p1974
V\u6240\u8b02\u611b\u597d\u4e0d\u904e\u662f\u4e00\u7a2e\u4f5c\u8327\u81ea\u7e1b\u2026
p1975
sVContactFlag
p1976
I1
sVNickName
p1977
V\u7396
p1978
sVRemarkPYQuanPin
p1979
Vyangzhijiu
p1980
sVHeadImgUrl
p1981
V/cgi-bin/mmwebwx-bin/webwxgeticon?seq=681324273&username=@ac0428e57662d447772f0aaadcab2699&skey=@crypt_c4463405_f828997f90577ab38fb847ff6f45f664
p1982
sVSex
p1983
I1
sVStarFriend
p1984
I0
sVStatues
p1985
I0
sa(dp1986
VUserName
p1987
V@6dfed1e60f2ee49074de807eb24634f2e20bb254ad9327d66579084fb0fae347
p1988
sVCity
p1989
g44
sVDisplayName
p1990
g44
sVUniFriend
p1991
I0
sVMemberList
p1992
(lp1993
sVPYQuanPin
p1994
Vjitang
p1995
sVRemarkPYInitial
p1996
VLYQ
p1997
sVUin
p1998
I0
sVAppAccountFlag
p1999
I0
sVVerifyFlag
p2000
I0
sVProvince
p2001
g44
sVKeyWord
p2002
g44
sVRemarkName
p2003
V\u5362\u5b87\u742a
p2004
sVPYInitial
p2005
VJT
p2006
sVChatRoomId
p2007
I0
sVIsOwner
p2008
I0
sVHideInputBarFlag
p2009
I0
sVEncryChatRoomId
p2010
g44
sVAttrStatus
p2011
I6181
sVSnsFlag
p2012
I1
sVMemberCount
p2013
I0
sVOwnerUin
p2014
I0
sVAlias
p2015
g44
sVSignature
p2016
V\u7bb1\u6839\u5c71\u5cb3\u9669\u5929\u4e0b
p2017
sVContactFlag
p2018
I1
sVNickName
p2019
V\u5fcc\u7cd6
p2020
sVRemarkPYQuanPin
p2021
Vluyuqi
p2022
sVHeadImgUrl
p2023
V/cgi-bin/mmwebwx-bin/webwxgeticon?seq=681324483&username=@6dfed1e60f2ee49074de807eb24634f2e20bb254ad9327d66579084fb0fae347&skey=@crypt_c4463405_f828997f90577ab38fb847ff6f45f664
p2024
sVSex
p2025
I2
sVStarFriend
p2026
I0
sVStatues
p2027
I0
sa(dp2028
VUserName
p2029
V@32f430a6128c78c751d5107a101cecae5b766f342b9c13586997b710e70f4115
p2030
sVCity
p2031
V\u660c\u5409
p2032
sVDisplayName
p2033
g44
sVUniFriend
p2034
I0
sVMemberList
p2035
(lp2036
sVPYQuanPin
p2037
Vyangzhinianliu
p2038
sVRemarkPYInitial
p2039
VSYB
p2040
sVUin
p2041
I0
sVAppAccountFlag
p2042
I0
sVVerifyFlag
p2043
I0
sVProvince
p2044
V\u65b0\u7586
p2045
sVKeyWord
p2046
g44
sVRemarkName
p2047
V\u5bbf\u53f6\u84d3
p2048
sVPYInitial
p2049
VYZNL
p2050
sVChatRoomId
p2051
I0
sVIsOwner
p2052
I0
sVHideInputBarFlag
p2053
I0
sVEncryChatRoomId
p2054
g44
sVAttrStatus
p2055
I233509
sVSnsFlag
p2056
I1
sVMemberCount
p2057
I0
sVOwnerUin
p2058
I0
sVAlias
p2059
g44
sVSignature
p2060
V\u7f3a\u61be\u662f\u4e00\u79cd\u6d6a\u6f2b\uff0c\u5f88\u591a\u4eba\u8fd8\u7fa1\u6155\u4e0d\u6765
p2061
sVContactFlag
p2062
I1
sVNickName
p2063
V\u9633\u6b62\u5eff\u516d
p2064
sVRemarkPYQuanPin
p2065
Vsuyebei
p2066
sVHeadImgUrl
p2067
V/cgi-bin/mmwebwx-bin/webwxgeticon?seq=681283839&username=@32f430a6128c78c751d5107a101cecae5b766f342b9c13586997b710e70f4115&skey=@crypt_c4463405_f828997f90577ab38fb847ff6f45f664
p2068
sVSex
p2069
I2
sVStarFriend
p2070
I0
sVStatues
p2071
I0
sa(dp2072
VUserName
p2073
V@0c98ec3a815d89b679011e36838c5bf0108ae57c2ded68360d9043fb301143e5
p2074
sVCity
p2075
V\u4ed9\u6843
p2076
sVDisplayName
p2077
g44
sVUniFriend
p2078
I0
sVMemberList
p2079
(lp2080
sVPYQuanPin
p2081
Vzhangjiaolian
p2082
sVRemarkPYInitial
p2083
VJL
p2084
sVUin
p2085
I0
sVAppAccountFlag
p2086
I0
sVVerifyFlag
p2087
I0
sVProvince
p2088
V\u6e56\u5317
p2089
sVKeyWord
p2090
g44
sVRemarkName
p2091
V\u6559\u7ec3
p2092
sVPYInitial
p2093
VZJL
p2094
sVChatRoomId
p2095
I0
sVIsOwner
p2096
I0
sVHideInputBarFlag
p2097
I0
sVEncryChatRoomId
p2098
g44
sVAttrStatus
p2099
I114725
sVSnsFlag
p2100
I257
sVMemberCount
p2101
I0
sVOwnerUin
p2102
I0
sVAlias
p2103
g44
sVSignature
p2104
V\u7279\u8bbeVlP\u73ed\uff0c\u62ff\u8bc1\u8d39\u7528\u5168\u5305\u5e72\u3002\u57ce\u533a\u63a5\u9001\u3002
p2105
sVContactFlag
p2106
I65537
sVNickName
p2107
V\u5f20\u6559\u7ec3
p2108
sVRemarkPYQuanPin
p2109
Vjiaolian
p2110
sVHeadImgUrl
p2111
V/cgi-bin/mmwebwx-bin/webwxgeticon?seq=681237220&username=@0c98ec3a815d89b679011e36838c5bf0108ae57c2ded68360d9043fb301143e5&skey=@crypt_c4463405_f828997f90577ab38fb847ff6f45f664
p2112
sVSex
p2113
I1
sVStarFriend
p2114
I0
sVStatues
p2115
I0
sa(dp2116
VUserName
p2117
V@b622b0536b78f25304e36a4bbec74983
p2118
sVCity
p2119
V\u54c8\u5c14\u6ee8
p2120
sVDisplayName
p2121
g44
sVUniFriend
p2122
I0
sVMemberList
p2123
(lp2124
sVPYQuanPin
p2125
Vxiexiwen
p2126
sVRemarkPYInitial
p2127
VXXW
p2128
sVUin
p2129
I0
sVAppAccountFlag
p2130
I0
sVVerifyFlag
p2131
I0
sVProvince
p2132
V\u9ed1\u9f99\u6c5f
p2133
sVKeyWord
p2134
Vmyn
p2135
sVRemarkName
p2136
V\u89e3\u9521\u6587
p2137
sVPYInitial
p2138
VXXW
p2139
sVChatRoomId
p2140
I0
sVIsOwner
p2141
I0
sVHideInputBarFlag
p2142
I0
sVEncryChatRoomId
p2143
g44
sVAttrStatus
p2144
I33788455
sVSnsFlag
p2145
I17
sVMemberCount
p2146
I0
sVOwnerUin
p2147
I0
sVAlias
p2148
g44
sVSignature
p2149
V-,,-fighting
p2150
sVContactFlag
p2151
I65537
sVNickName
p2152
V\u89e3\u9521\u6587
p2153
sVRemarkPYQuanPin
p2154
Vxiexiwen
p2155
sVHeadImgUrl
p2156
V/cgi-bin/mmwebwx-bin/webwxgeticon?seq=681320668&username=@b622b0536b78f25304e36a4bbec74983&skey=@crypt_c4463405_f828997f90577ab38fb847ff6f45f664
p2157
sVSex
p2158
I1
sVStarFriend
p2159
I0
sVStatues
p2160
I0
sa(dp2161
VUserName
p2162
V@c95875677102a604a487457971cbb5a45f00eb6081e4b3507040e77b8cc8bc70
p2163
sVCity
p2164
V\u5317\u533a
p2165
sVDisplayName
p2166
g44
sVUniFriend
p2167
I0
sVMemberList
p2168
(lp2169
sVPYQuanPin
p2170
Vnining
p2171
sVRemarkPYInitial
p2172
g44
sVUin
p2173
I0
sVAppAccountFlag
p2174
I0
sVVerifyFlag
p2175
I0
sVProvince
p2176
V\u9999\u6e2f
p2177
sVKeyWord
p2178
g44
sVRemarkName
p2179
g44
sVPYInitial
p2180
VNN
p2181
sVChatRoomId
p2182
I0
sVIsOwner
p2183
I0
sVHideInputBarFlag
p2184
I0
sVEncryChatRoomId
p2185
g44
sVAttrStatus
p2186
I102503
sVSnsFlag
p2187
I257
sVMemberCount
p2188
I0
sVOwnerUin
p2189
I0
sVAlias
p2190
g44
sVSignature
p2191
V\u4f60\u65e2\u7136\u6765\u4e86\u4eba\u95f4\u8fd9\u4e00\u906d \u5c31\u597d\u597d\u4f53\u9a8c \u6ca1\u4ec0\u4e48\u53ef\u4ee5\u88ab\u675f\u7f1a
p2192
sVContactFlag
p2193
I3
sVNickName
p2194
V\u6ce5\u6cde
p2195
sVRemarkPYQuanPin
p2196
g44
sVHeadImgUrl
p2197
V/cgi-bin/mmwebwx-bin/webwxgeticon?seq=681322492&username=@c95875677102a604a487457971cbb5a45f00eb6081e4b3507040e77b8cc8bc70&skey=@crypt_c4463405_f828997f90577ab38fb847ff6f45f664
p2198
sVSex
p2199
I1
sVStarFriend
p2200
I0
sVStatues
p2201
I0
sa(dp2202
VUserName
p2203
V@8cc614dde175da75c0e3f97f066c58611a557e100992eeb2a70fff700e35ad71
p2204
sVCity
p2205
g44
sVDisplayName
p2206
g44
sVUniFriend
p2207
I0
sVMemberList
p2208
(lp2209
sVPYQuanPin
p2210
VCH
p2211
sVRemarkPYInitial
p2212
VCH
p2213
sVUin
p2214
I0
sVAppAccountFlag
p2215
I0
sVVerifyFlag
p2216
I0
sVProvince
p2217
V\u6e56\u5317
p2218
sVKeyWord
p2219
g44
sVRemarkName
p2220
V\u660c\u8377
p2221
sVPYInitial
p2222
VCH
p2223
sVChatRoomId
p2224
I0
sVIsOwner
p2225
I0
sVHideInputBarFlag
p2226
I0
sVEncryChatRoomId
p2227
g44
sVAttrStatus
p2228
I102437
sVSnsFlag
p2229
I257
sVMemberCount
p2230
I0
sVOwnerUin
p2231
I0
sVAlias
p2232
g44
sVSignature
p2233
V\u52aa\u529b\u4e0a\u8fdb\u4e14\u4f18\u79c0
p2234
sVContactFlag
p2235
I1
sVNickName
p2236
VC  H
p2237
sVRemarkPYQuanPin
p2238
Vchanghe
p2239
sVHeadImgUrl
p2240
V/cgi-bin/mmwebwx-bin/webwxgeticon?seq=681325419&username=@8cc614dde175da75c0e3f97f066c58611a557e100992eeb2a70fff700e35ad71&skey=@crypt_c4463405_f828997f90577ab38fb847ff6f45f664
p2241
sVSex
p2242
I2
sVStarFriend
p2243
I0
sVStatues
p2244
I0
sa(dp2245
VUserName
p2246
V@a60f82abc3b33620d25537c1318181a83e0be0638b398f8a6e002539a16770a9
p2247
sVCity
p2248
g44
sVDisplayName
p2249
g44
sVUniFriend
p2250
I0
sVMemberList
p2251
(lp2252
sVPYQuanPin
p2253
Vshaoping
p2254
sVRemarkPYInitial
p2255
g1783
sVUin
p2256
I0
sVAppAccountFlag
p2257
I0
sVVerifyFlag
p2258
I0
sVProvince
p2259
g44
sVKeyWord
p2260
g44
sVRemarkName
p2261
V\u7237
p2262
sVPYInitial
p2263
VSP
p2264
sVChatRoomId
p2265
I0
sVIsOwner
p2266
I0
sVHideInputBarFlag
p2267
I0
sVEncryChatRoomId
p2268
g44
sVAttrStatus
p2269
I102437
sVSnsFlag
p2270
I1
sVMemberCount
p2271
I0
sVOwnerUin
p2272
I0
sVAlias
p2273
g44
sVSignature
p2274
V\u4e0d\u80fd\u6539\u53d8\u522b\u4eba\u53ea\u80fd\u6539\u53d8\u81ea\u5df1\u4e0d\u80fd\u6539\u53d8\u751f\u6d3b\u53ea\u80fd\u9002\u5e94\u751f\u6d3b
p2275
sVContactFlag
p2276
I65537
sVNickName
p2277
V\u5c11\u5e73
p2278
sVRemarkPYQuanPin
p2279
Vye
p2280
sVHeadImgUrl
p2281
V/cgi-bin/mmwebwx-bin/webwxgeticon?seq=681324608&username=@a60f82abc3b33620d25537c1318181a83e0be0638b398f8a6e002539a16770a9&skey=@crypt_c4463405_f828997f90577ab38fb847ff6f45f664
p2282
sVSex
p2283
I0
sVStarFriend
p2284
I0
sVStatues
p2285
I0
sa(dp2286
VUserName
p2287
V@b00890d338f20fb0f41292ec74909f85cd22c3cb0c87a6af7c9adcea8871e17a
p2288
sVCity
p2289
V\u54c8\u5c14\u6ee8
p2290
sVDisplayName
p2291
g44
sVUniFriend
p2292
I0
sVMemberList
p2293
(lp2294
sVPYQuanPin
p2295
VYSV
p2296
sVRemarkPYInitial
p2297
VYSW
p2298
sVUin
p2299
I0
sVAppAccountFlag
p2300
I0
sVVerifyFlag
p2301
I0
sVProvince
p2302
V\u9ed1\u9f99\u6c5f
p2303
sVKeyWord
p2304
g44
sVRemarkName
p2305
V\u6768\u5c1a\u5a01
p2306
sVPYInitial
p2307
VYSV
p2308
sVChatRoomId
p2309
I0
sVIsOwner
p2310
I0
sVHideInputBarFlag
p2311
I0
sVEncryChatRoomId
p2312
g44
sVAttrStatus
p2313
I135357
sVSnsFlag
p2314
I257
sVMemberCount
p2315
I0
sVOwnerUin
p2316
I0
sVAlias
p2317
g44
sVSignature
p2318
VGuardian
p2319
sVContactFlag
p2320
I1
sVNickName
p2321
VYSV
p2322
sVRemarkPYQuanPin
p2323
Vyangshangwei
p2324
sVHeadImgUrl
p2325
V/cgi-bin/mmwebwx-bin/webwxgeticon?seq=681312705&username=@b00890d338f20fb0f41292ec74909f85cd22c3cb0c87a6af7c9adcea8871e17a&skey=@crypt_c4463405_f828997f90577ab38fb847ff6f45f664
p2326
sVSex
p2327
I1
sVStarFriend
p2328
I0
sVStatues
p2329
I0
sa(dp2330
VUserName
p2331
V@528c60277d4f0313364298fdd9d6c1ed71f750fcb06216f30a9c750f6f5a06d9
p2332
sVCity
p2333
V\u54c8\u5c14\u6ee8
p2334
sVDisplayName
p2335
g44
sVUniFriend
p2336
I0
sVMemberList
p2337
(lp2338
sVPYQuanPin
p2339
VnoSugar
p2340
sVRemarkPYInitial
p2341
VWWL
p2342
sVUin
p2343
I0
sVAppAccountFlag
p2344
I0
sVVerifyFlag
p2345
I0
sVProvince
p2346
V\u9ed1\u9f99\u6c5f
p2347
sVKeyWord
p2348
g44
sVRemarkName
p2349
V\u738b\u6587\u4eae
p2350
sVPYInitial
p2351
VNOSUGAR
p2352
sVChatRoomId
p2353
I0
sVIsOwner
p2354
I0
sVHideInputBarFlag
p2355
I0
sVEncryChatRoomId
p2356
g44
sVAttrStatus
p2357
I135525
sVSnsFlag
p2358
I257
sVMemberCount
p2359
I0
sVOwnerUin
p2360
I0
sVAlias
p2361
g44
sVSignature
p2362
VnoSugar
p2363
sVContactFlag
p2364
I1
sVNickName
p2365
VnoSugar
p2366
sVRemarkPYQuanPin
p2367
Vwangwenliang
p2368
sVHeadImgUrl
p2369
V/cgi-bin/mmwebwx-bin/webwxgeticon?seq=681325186&username=@528c60277d4f0313364298fdd9d6c1ed71f750fcb06216f30a9c750f6f5a06d9&skey=@crypt_c4463405_f828997f90577ab38fb847ff6f45f664
p2370
sVSex
p2371
I1
sVStarFriend
p2372
I0
sVStatues
p2373
I0
sa(dp2374
VUserName
p2375
V@e0a848eba3e0346d56e2d6c9abd2288284a93b19047b5bbb8e31bda17da93510
p2376
sVCity
p2377
V\u6b66\u6c49
p2378
sVDisplayName
p2379
g44
sVUniFriend
p2380
I0
sVMemberList
p2381
(lp2382
sVPYQuanPin
p2383
Vyinyun
p2384
sVRemarkPYInitial
p2385
VWY
p2386
sVUin
p2387
I0
sVAppAccountFlag
p2388
I0
sVVerifyFlag
p2389
I0
sVProvince
p2390
V\u6e56\u5317
p2391
sVKeyWord
p2392
g44
sVRemarkName
p2393
V\u738b\u97f5
p2394
sVPYInitial
p2395
VYY
p2396
sVChatRoomId
p2397
I0
sVIsOwner
p2398
I0
sVHideInputBarFlag
p2399
I0
sVEncryChatRoomId
p2400
g44
sVAttrStatus
p2401
I135293
sVSnsFlag
p2402
I1
sVMemberCount
p2403
I0
sVOwnerUin
p2404
I0
sVAlias
p2405
g44
sVSignature
p2406
V\u5c31\u7b97\u6709\u4e00\u5929\u4e00\u65e0\u6240\u6709\uff0c\u4e5f\u4e0d\u7f3a\u4ece\u5934\u518d\u6765\u7684\u52c7\u6c14
p2407
sVContactFlag
p2408
I1
sVNickName
p2409
V\u97f3\u5300
p2410
sVRemarkPYQuanPin
p2411
Vwangyun
p2412
sVHeadImgUrl
p2413
V/cgi-bin/mmwebwx-bin/webwxgeticon?seq=681326974&username=@e0a848eba3e0346d56e2d6c9abd2288284a93b19047b5bbb8e31bda17da93510&skey=@crypt_c4463405_f828997f90577ab38fb847ff6f45f664
p2414
sVSex
p2415
I2
sVStarFriend
p2416
I0
sVStatues
p2417
I0
sa(dp2418
VUserName
p2419
V@bb0117f9d193a605464ee63f936f033ff408a2f547314734bea6e85d675c6d49
p2420
sVCity
p2421
V\u4e34\u6c82
p2422
sVDisplayName
p2423
g44
sVUniFriend
p2424
I0
sVMemberList
p2425
(lp2426
sVPYQuanPin
p2427
Vfangdong
p2428
sVRemarkPYInitial
p2429
VXZQ
p2430
sVUin
p2431
I0
sVAppAccountFlag
p2432
I0
sVVerifyFlag
p2433
I0
sVProvince
p2434
V\u5c71\u4e1c
p2435
sVKeyWord
p2436
g44
sVRemarkName
p2437
V\u5f90\u5fd7\u5f3a
p2438
sVPYInitial
p2439
VFD
p2440
sVChatRoomId
p2441
I0
sVIsOwner
p2442
I0
sVHideInputBarFlag
p2443
I0
sVEncryChatRoomId
p2444
g44
sVAttrStatus
p2445
I102501
sVSnsFlag
p2446
I1
sVMemberCount
p2447
I0
sVOwnerUin
p2448
I0
sVAlias
p2449
g44
sVSignature
p2450
g44
sVContactFlag
p2451
I1
sVNickName
p2452
V\u623f\u4e1c
p2453
sVRemarkPYQuanPin
p2454
Vxuzhiqiang
p2455
sVHeadImgUrl
p2456
V/cgi-bin/mmwebwx-bin/webwxgeticon?seq=681277735&username=@bb0117f9d193a605464ee63f936f033ff408a2f547314734bea6e85d675c6d49&skey=@crypt_c4463405_f828997f90577ab38fb847ff6f45f664
p2457
sVSex
p2458
I1
sVStarFriend
p2459
I0
sVStatues
p2460
I0
sa(dp2461
VUserName
p2462
V@d19576f72cda080182af23503368c9a5869d607cbe3d737cc12bc1ef2dfec228
p2463
sVCity
p2464
V\u54c8\u5c14\u6ee8
p2465
sVDisplayName
p2466
g44
sVUniFriend
p2467
I0
sVMemberList
p2468
(lp2469
sVPYQuanPin
p2470
V52Hertz
p2471
sVRemarkPYInitial
p2472
VLJH
p2473
sVUin
p2474
I0
sVAppAccountFlag
p2475
I0
sVVerifyFlag
p2476
I0
sVProvince
p2477
V\u9ed1\u9f99\u6c5f
p2478
sVKeyWord
p2479
g44
sVRemarkName
p2480
V\u5218\u91d1\u6656
p2481
sVPYInitial
p2482
V52HERTZ
p2483
sVChatRoomId
p2484
I0
sVIsOwner
p2485
I0
sVHideInputBarFlag
p2486
I0
sVEncryChatRoomId
p2487
g44
sVAttrStatus
p2488
I4197
sVSnsFlag
p2489
I1
sVMemberCount
p2490
I0
sVOwnerUin
p2491
I0
sVAlias
p2492
g44
sVSignature
p2493
V\u2026
p2494
sVContactFlag
p2495
I1
sVNickName
p2496
V52Hertz
p2497
sVRemarkPYQuanPin
p2498
Vliujinhui
p2499
sVHeadImgUrl
p2500
V/cgi-bin/mmwebwx-bin/webwxgeticon?seq=681327233&username=@d19576f72cda080182af23503368c9a5869d607cbe3d737cc12bc1ef2dfec228&skey=@crypt_c4463405_f828997f90577ab38fb847ff6f45f664
p2501
sVSex
p2502
I1
sVStarFriend
p2503
I0
sVStatues
p2504
I0
sa(dp2505
VUserName
p2506
V@07b86f20b745359a8c49067c4b8197b747962cbd48c54ee8560814548e2aef15
p2507
sVCity
p2508
V\u7ee5\u5316
p2509
sVDisplayName
p2510
g44
sVUniFriend
p2511
I0
sVMemberList
p2512
(lp2513
sVPYQuanPin
p2514
Vtongguang
p2515
sVRemarkPYInitial
p2516
VYH
p2517
sVUin
p2518
I0
sVAppAccountFlag
p2519
I0
sVVerifyFlag
p2520
I0
sVProvince
p2521
V\u9ed1\u9f99\u6c5f
p2522
sVKeyWord
p2523
g44
sVRemarkName
p2524
V\u4e8e\u6b22
p2525
sVPYInitial
p2526
VTG
p2527
sVChatRoomId
p2528
I0
sVIsOwner
p2529
I0
sVHideInputBarFlag
p2530
I0
sVEncryChatRoomId
p2531
g44
sVAttrStatus
p2532
I102501
sVSnsFlag
p2533
I257
sVMemberCount
p2534
I0
sVOwnerUin
p2535
I0
sVAlias
p2536
g44
sVSignature
p2537
g44
sVContactFlag
p2538
I1
sVNickName
p2539
V\u77b3\u5149
p2540
sVRemarkPYQuanPin
p2541
Vyuhuan
p2542
sVHeadImgUrl
p2543
V/cgi-bin/mmwebwx-bin/webwxgeticon?seq=681327237&username=@07b86f20b745359a8c49067c4b8197b747962cbd48c54ee8560814548e2aef15&skey=@crypt_c4463405_f828997f90577ab38fb847ff6f45f664
p2544
sVSex
p2545
I2
sVStarFriend
p2546
I0
sVStatues
p2547
I0
sa(dp2548
VUserName
p2549
V@80f54d68e8813b14db4d3b856f09ff518c4be5327bd06a4158f58a0a812ee5d2
p2550
sVCity
p2551
g44
sVDisplayName
p2552
g44
sVUniFriend
p2553
I0
sVMemberList
p2554
(lp2555
sVPYQuanPin
p2556
VmayejunDDD
p2557
sVRemarkPYInitial
p2558
VZC
p2559
sVUin
p2560
I0
sVAppAccountFlag
p2561
I0
sVVerifyFlag
p2562
I0
sVProvince
p2563
g44
sVKeyWord
p2564
g44
sVRemarkName
p2565
V\u5f20\u9a70
p2566
sVPYInitial
p2567
VMYJDDD
p2568
sVChatRoomId
p2569
I0
sVIsOwner
p2570
I0
sVHideInputBarFlag
p2571
I0
sVEncryChatRoomId
p2572
g44
sVAttrStatus
p2573
I33656933
sVSnsFlag
p2574
I1
sVMemberCount
p2575
I0
sVOwnerUin
p2576
I0
sVAlias
p2577
g44
sVSignature
p2578
g44
sVContactFlag
p2579
I1
sVNickName
p2580
V\u9a6c\u4e5f\u541bDDD
p2581
sVRemarkPYQuanPin
p2582
Vzhangchi
p2583
sVHeadImgUrl
p2584
V/cgi-bin/mmwebwx-bin/webwxgeticon?seq=681327238&username=@80f54d68e8813b14db4d3b856f09ff518c4be5327bd06a4158f58a0a812ee5d2&skey=@crypt_c4463405_f828997f90577ab38fb847ff6f45f664
p2585
sVSex
p2586
I1
sVStarFriend
p2587
I0
sVStatues
p2588
I0
sa(dp2589
VUserName
p2590
V@d0b464f6610b1dd67e93eb4efc5aa8478d6f383f0ea83c578114142d2e5af1e4
p2591
sVCity
p2592
g44
sVDisplayName
p2593
g44
sVUniFriend
p2594
I0
sVMemberList
p2595
(lp2596
sVPYQuanPin
p2597
VCyk
p2598
sVRemarkPYInitial
p2599
VCYK
p2600
sVUin
p2601
I0
sVAppAccountFlag
p2602
I0
sVVerifyFlag
p2603
I0
sVProvince
p2604
V\u6e56\u5317
p2605
sVKeyWord
p2606
g44
sVRemarkName
p2607
V\u5d14\u8fdc\u5eb7
p2608
sVPYInitial
p2609
VCYK
p2610
sVChatRoomId
p2611
I0
sVIsOwner
p2612
I0
sVHideInputBarFlag
p2613
I0
sVEncryChatRoomId
p2614
g44
sVAttrStatus
p2615
I33656933
sVSnsFlag
p2616
I257
sVMemberCount
p2617
I0
sVOwnerUin
p2618
I0
sVAlias
p2619
g44
sVSignature
p2620
V<span class="emoji emoji1f612"></span>
p2621
sVContactFlag
p2622
I1
sVNickName
p2623
VCyk
p2624
sVRemarkPYQuanPin
p2625
Vcuiyuankang
p2626
sVHeadImgUrl
p2627
V/cgi-bin/mmwebwx-bin/webwxgeticon?seq=681327241&username=@d0b464f6610b1dd67e93eb4efc5aa8478d6f383f0ea83c578114142d2e5af1e4&skey=@crypt_c4463405_f828997f90577ab38fb847ff6f45f664
p2628
sVSex
p2629
I1
sVStarFriend
p2630
I0
sVStatues
p2631
I0
sa(dp2632
VUserName
p2633
V@4a0d84f80c9f092fbc39870bc395788631dc7d0beb2849a56505964827612009
p2634
sVCity
p2635
V\u54c8\u5c14\u6ee8
p2636
sVDisplayName
p2637
g44
sVUniFriend
p2638
I0
sVMemberList
p2639
(lp2640
sVPYQuanPin
p2641
Vlunhui
p2642
sVRemarkPYInitial
p2643
VCJP
p2644
sVUin
p2645
I0
sVAppAccountFlag
p2646
I0
sVVerifyFlag
p2647
I0
sVProvince
p2648
V\u9ed1\u9f99\u6c5f
p2649
sVKeyWord
p2650
g44
sVRemarkName
p2651
V\u9648\u7ee7\u9e4f
p2652
sVPYInitial
p2653
VLH
p2654
sVChatRoomId
p2655
I0
sVIsOwner
p2656
I0
sVHideInputBarFlag
p2657
I0
sVEncryChatRoomId
p2658
g44
sVAttrStatus
p2659
I135205
sVSnsFlag
p2660
I257
sVMemberCount
p2661
I0
sVOwnerUin
p2662
I0
sVAlias
p2663
g44
sVSignature
p2664
g44
sVContactFlag
p2665
I1
sVNickName
p2666
V\u8f6e\u56de
p2667
sVRemarkPYQuanPin
p2668
Vchenjipeng
p2669
sVHeadImgUrl
p2670
V/cgi-bin/mmwebwx-bin/webwxgeticon?seq=681267732&username=@4a0d84f80c9f092fbc39870bc395788631dc7d0beb2849a56505964827612009&skey=@crypt_c4463405_f828997f90577ab38fb847ff6f45f664
p2671
sVSex
p2672
I1
sVStarFriend
p2673
I0
sVStatues
p2674
I0
sa(dp2675
VUserName
p2676
V@24d65acebcb481eefaedd0ee8d34732d7dbf90960a55e774b521b4fe4c75e277
p2677
sVCity
p2678
g44
sVDisplayName
p2679
g44
sVUniFriend
p2680
I0
sVMemberList
p2681
(lp2682
sVPYQuanPin
p2683
VKelly
p2684
sVRemarkPYInitial
p2685
VDYX
p2686
sVUin
p2687
I0
sVAppAccountFlag
p2688
I0
sVVerifyFlag
p2689
I0
sVProvince
p2690
g44
sVKeyWord
p2691
g44
sVRemarkName
p2692
V\u675c\u96e8\u8f9b
p2693
sVPYInitial
p2694
VKELLY
p2695
sVChatRoomId
p2696
I0
sVIsOwner
p2697
I0
sVHideInputBarFlag
p2698
I0
sVEncryChatRoomId
p2699
g44
sVAttrStatus
p2700
I242725
sVSnsFlag
p2701
I17
sVMemberCount
p2702
I0
sVOwnerUin
p2703
I0
sVAlias
p2704
g44
sVSignature
p2705
V\u4e3a\u4eba\u5982\u6b64\u60ed\u6127,
p2706
sVContactFlag
p2707
I1
sVNickName
p2708
VKelly      -
p2709
sVRemarkPYQuanPin
p2710
Vduyuxin
p2711
sVHeadImgUrl
p2712
V/cgi-bin/mmwebwx-bin/webwxgeticon?seq=681327568&username=@24d65acebcb481eefaedd0ee8d34732d7dbf90960a55e774b521b4fe4c75e277&skey=@crypt_c4463405_f828997f90577ab38fb847ff6f45f664
p2713
sVSex
p2714
I2
sVStarFriend
p2715
I0
sVStatues
p2716
I0
sa(dp2717
VUserName
p2718
V@422118f1161a6be4a3d0fc727aebcab4b430ff1424e28dd53d1a4906ba7fadc9
p2719
sVCity
p2720
g44
sVDisplayName
p2721
g44
sVUniFriend
p2722
I0
sVMemberList
p2723
(lp2724
sVPYQuanPin
p2725
Vbiubiu
p2726
sVRemarkPYInitial
p2727
VXWH
p2728
sVUin
p2729
I0
sVAppAccountFlag
p2730
I0
sVVerifyFlag
p2731
I0
sVProvince
p2732
VNovosibirsk
p2733
sVKeyWord
p2734
g44
sVRemarkName
p2735
V\u5f90\u6587\u8c6a
p2736
sVPYInitial
p2737
VBIUBIU
p2738
sVChatRoomId
p2739
I0
sVIsOwner
p2740
I0
sVHideInputBarFlag
p2741
I0
sVEncryChatRoomId
p2742
g44
sVAttrStatus
p2743
I135205
sVSnsFlag
p2744
I257
sVMemberCount
p2745
I0
sVOwnerUin
p2746
I0
sVAlias
p2747
g44
sVSignature
p2748
V\u6ca1\u6709\u4e0d\u5e26\u4f24\u7684\u4eba\u2014\u2014\u771f\u6b63\u80fd\u6cbb\u6108\u4f60\u7684\u53ea\u6709\u81ea\u5df1
p2749
sVContactFlag
p2750
I1
sVNickName
p2751
Vbiu~biu~
p2752
sVRemarkPYQuanPin
p2753
Vxuwenhao
p2754
sVHeadImgUrl
p2755
V/cgi-bin/mmwebwx-bin/webwxgeticon?seq=681323473&username=@422118f1161a6be4a3d0fc727aebcab4b430ff1424e28dd53d1a4906ba7fadc9&skey=@crypt_c4463405_f828997f90577ab38fb847ff6f45f664
p2756
sVSex
p2757
I1
sVStarFriend
p2758
I0
sVStatues
p2759
I0
sa(dp2760
VUserName
p2761
V@27a5b54f082836e058bf0e093e96b7f7fd9945621889e407ec33a185e36e15ad
p2762
sVCity
p2763
g44
sVDisplayName
p2764
g44
sVUniFriend
p2765
I0
sVMemberList
p2766
(lp2767
sVPYQuanPin
p2768
Vhongsedehaimianbaobao
p2769
sVRemarkPYInitial
p2770
VZYT
p2771
sVUin
p2772
I0
sVAppAccountFlag
p2773
I0
sVVerifyFlag
p2774
I0
sVProvince
p2775
VVladivostok
p2776
sVKeyWord
p2777
g44
sVRemarkName
p2778
V\u5f20\u5b87\u5a77
p2779
sVPYInitial
p2780
VHSDHMBB
p2781
sVChatRoomId
p2782
I0
sVIsOwner
p2783
I0
sVHideInputBarFlag
p2784
I0
sVEncryChatRoomId
p2785
g44
sVAttrStatus
p2786
I33560677
sVSnsFlag
p2787
I1
sVMemberCount
p2788
I0
sVOwnerUin
p2789
I0
sVAlias
p2790
g44
sVSignature
p2791
g44
sVContactFlag
p2792
I1
sVNickName
p2793
V\u7ea2\u8272\u7684\u6d77\u7ef5\u5b9d\u5b9d
p2794
sVRemarkPYQuanPin
p2795
Vzhangyuting
p2796
sVHeadImgUrl
p2797
V/cgi-bin/mmwebwx-bin/webwxgeticon?seq=681328081&username=@27a5b54f082836e058bf0e093e96b7f7fd9945621889e407ec33a185e36e15ad&skey=@crypt_c4463405_f828997f90577ab38fb847ff6f45f664
p2798
sVSex
p2799
I2
sVStarFriend
p2800
I0
sVStatues
p2801
I0
sa(dp2802
VUserName
p2803
V@ed09b22e1a54e809d1a18acf28db94e7c0daec7dc3b036ad5a059af4a8031392
p2804
sVCity
p2805
g44
sVDisplayName
p2806
g44
sVUniFriend
p2807
I0
sVMemberList
p2808
(lp2809
sVPYQuanPin
p2810
Vningmengbancux
p2811
sVRemarkPYInitial
p2812
VSXN
p2813
sVUin
p2814
I0
sVAppAccountFlag
p2815
I0
sVVerifyFlag
p2816
I0
sVProvince
p2817
g44
sVKeyWord
p2818
g44
sVRemarkName
p2819
V\u5b59\u96ea\u6960
p2820
sVPYInitial
p2821
VNMBCX
p2822
sVChatRoomId
p2823
I0
sVIsOwner
p2824
I0
sVHideInputBarFlag
p2825
I0
sVEncryChatRoomId
p2826
g44
sVAttrStatus
p2827
I145765
sVSnsFlag
p2828
I1
sVMemberCount
p2829
I0
sVOwnerUin
p2830
I0
sVAlias
p2831
g44
sVSignature
p2832
g44
sVContactFlag
p2833
I1
sVNickName
p2834
V\u67e0\u6aac\u62cc\u918bx
p2835
sVRemarkPYQuanPin
p2836
Vsunxuenan
p2837
sVHeadImgUrl
p2838
V/cgi-bin/mmwebwx-bin/webwxgeticon?seq=681328082&username=@ed09b22e1a54e809d1a18acf28db94e7c0daec7dc3b036ad5a059af4a8031392&skey=@crypt_c4463405_f828997f90577ab38fb847ff6f45f664
p2839
sVSex
p2840
I2
sVStarFriend
p2841
I0
sVStatues
p2842
I0
sa(dp2843
VUserName
p2844
V@40668a5d2fe66b943b877de0f928f9032e9acaec79766e977146a24c33ec1399
p2845
sVCity
p2846
V\u5927\u5e86
p2847
sVDisplayName
p2848
g44
sVUniFriend
p2849
I0
sVMemberList
p2850
(lp2851
sVPYQuanPin
p2852
Vyiyue
p2853
sVRemarkPYInitial
p2854
VZYL
p2855
sVUin
p2856
I0
sVAppAccountFlag
p2857
I0
sVVerifyFlag
p2858
I0
sVProvince
p2859
V\u9ed1\u9f99\u6c5f
p2860
sVKeyWord
p2861
g44
sVRemarkName
p2862
V\u5f20\u5f66\u9f99
p2863
sVPYInitial
p2864
VYY
p2865
sVChatRoomId
p2866
I0
sVIsOwner
p2867
I0
sVHideInputBarFlag
p2868
I0
sVEncryChatRoomId
p2869
g44
sVAttrStatus
p2870
I102501
sVSnsFlag
p2871
I257
sVMemberCount
p2872
I0
sVOwnerUin
p2873
I0
sVAlias
p2874
g44
sVSignature
p2875
g44
sVContactFlag
p2876
I1
sVNickName
p2877
V\u4e00\u4e50
p2878
sVRemarkPYQuanPin
p2879
Vzhangyanlong
p2880
sVHeadImgUrl
p2881
V/cgi-bin/mmwebwx-bin/webwxgeticon?seq=662655638&username=@40668a5d2fe66b943b877de0f928f9032e9acaec79766e977146a24c33ec1399&skey=@crypt_c4463405_f828997f90577ab38fb847ff6f45f664
p2882
sVSex
p2883
I1
sVStarFriend
p2884
I0
sVStatues
p2885
I0
sa(dp2886
VUserName
p2887
V@64047e3b670c500ea6f74a61459ef2268eaf35c4fba851b9e9259fcfbaf5881f
p2888
sVCity
p2889
V\u6b66\u6c49
p2890
sVDisplayName
p2891
g44
sVUniFriend
p2892
I0
sVMemberList
p2893
(lp2894
sVPYQuanPin
p2895
g44
sVRemarkPYInitial
p2896
VZQ
p2897
sVUin
p2898
I0
sVAppAccountFlag
p2899
I0
sVVerifyFlag
p2900
I0
sVProvince
p2901
V\u6e56\u5317
p2902
sVKeyWord
p2903
g44
sVRemarkName
p2904
V\u90d1\u7434
p2905
sVPYInitial
p2906
g44
sVChatRoomId
p2907
I0
sVIsOwner
p2908
I0
sVHideInputBarFlag
p2909
I0
sVEncryChatRoomId
p2910
g44
sVAttrStatus
p2911
I4221
sVSnsFlag
p2912
I257
sVMemberCount
p2913
I0
sVOwnerUin
p2914
I0
sVAlias
p2915
g44
sVSignature
p2916
g44
sVContactFlag
p2917
I1
sVNickName
p2918
V\u3002
p2919
sVRemarkPYQuanPin
p2920
Vzhengqin
p2921
sVHeadImgUrl
p2922
V/cgi-bin/mmwebwx-bin/webwxgeticon?seq=708766892&username=@64047e3b670c500ea6f74a61459ef2268eaf35c4fba851b9e9259fcfbaf5881f&skey=@crypt_c4463405_f828997f90577ab38fb847ff6f45f664
p2923
sVSex
p2924
I2
sVStarFriend
p2925
I0
sVStatues
p2926
I0
sa(dp2927
VUserName
p2928
V@e0560799847dd0bf717e9be36f42b310f7f97deda6eaf63f91130187533abf44
p2929
sVCity
p2930
V\u54c8\u5c14\u6ee8
p2931
sVDisplayName
p2932
g44
sVUniFriend
p2933
I0
sVMemberList
p2934
(lp2935
sVPYQuanPin
p2936
V?????
p2937
sVRemarkPYInitial
p2938
VOYRH
p2939
sVUin
p2940
I0
sVAppAccountFlag
p2941
I0
sVVerifyFlag
p2942
I0
sVProvince
p2943
V\u9ed1\u9f99\u6c5f
p2944
sVKeyWord
p2945
Vouy
p2946
sVRemarkName
p2947
V\u6b27\u9633\u745e\u5b8f
p2948
sVPYInitial
p2949
V?????
p2950
sVChatRoomId
p2951
I0
sVIsOwner
p2952
I0
sVHideInputBarFlag
p2953
I0
sVEncryChatRoomId
p2954
g44
sVAttrStatus
p2955
I242303
sVSnsFlag
p2956
I17
sVMemberCount
p2957
I0
sVOwnerUin
p2958
I0
sVAlias
p2959
g44
sVSignature
p2960
g44
sVContactFlag
p2961
I1
sVNickName
p2962
V\U0001f315\U0001f316\U0001f317\U0001f318\U0001f311
p2963
sVRemarkPYQuanPin
p2964
Vouyangruihong
p2965
sVHeadImgUrl
p2966
V/cgi-bin/mmwebwx-bin/webwxgeticon?seq=681308280&username=@e0560799847dd0bf717e9be36f42b310f7f97deda6eaf63f91130187533abf44&skey=@crypt_c4463405_f828997f90577ab38fb847ff6f45f664
p2967
sVSex
p2968
I1
sVStarFriend
p2969
I0
sVStatues
p2970
I0
sa(dp2971
VUserName
p2972
V@c393853f6cc5fdf84137f958fbf09781cbd8453c40bdcb53d29272bda97a6575
p2973
sVCity
p2974
V\u5927\u5e86
p2975
sVDisplayName
p2976
g44
sVUniFriend
p2977
I0
sVMemberList
p2978
(lp2979
sVPYQuanPin
p2980
Vwochaoaixuexi
p2981
sVRemarkPYInitial
p2982
VXZC
p2983
sVUin
p2984
I0
sVAppAccountFlag
p2985
I0
sVVerifyFlag
p2986
I0
sVProvince
p2987
V\u9ed1\u9f99\u6c5f
p2988
sVKeyWord
p2989
g44
sVRemarkName
p2990
V\u5f90\u5fd7\u8d85
p2991
sVPYInitial
p2992
VWCAXX
p2993
sVChatRoomId
p2994
I0
sVIsOwner
p2995
I0
sVHideInputBarFlag
p2996
I0
sVEncryChatRoomId
p2997
g44
sVAttrStatus
p2998
I104549
sVSnsFlag
p2999
I385
sVMemberCount
p3000
I0
sVOwnerUin
p3001
I0
sVAlias
p3002
g44
sVSignature
p3003
V\u60f3\u627e\u5230\u81ea\u5df1\u7684key
p3004
sVContactFlag
p3005
I1
sVNickName
p3006
V\u6211\u8d85\u7231\u5b66\u4e60
p3007
sVRemarkPYQuanPin
p3008
Vxuzhichao
p3009
sVHeadImgUrl
p3010
V/cgi-bin/mmwebwx-bin/webwxgeticon?seq=708767252&username=@c393853f6cc5fdf84137f958fbf09781cbd8453c40bdcb53d29272bda97a6575&skey=@crypt_c4463405_f828997f90577ab38fb847ff6f45f664
p3011
sVSex
p3012
I1
sVStarFriend
p3013
I0
sVStatues
p3014
I0
sa(dp3015
VUserName
p3016
V@9775ea633d1a932873f0506faf47e5217933d547a029faef230f971c71b8d6de
p3017
sVCity
p3018
g44
sVDisplayName
p3019
g44
sVUniFriend
p3020
I0
sVMemberList
p3021
(lp3022
sVPYQuanPin
p3023
Vcanrechenxi
p3024
sVRemarkPYInitial
p3025
VZYX
p3026
sVUin
p3027
I0
sVAppAccountFlag
p3028
I0
sVVerifyFlag
p3029
I0
sVProvince
p3030
g44
sVKeyWord
p3031
g44
sVRemarkName
p3032
V\u5468\u5b87\u8f69
p3033
sVPYInitial
p3034
VCRCX
p3035
sVChatRoomId
p3036
I0
sVIsOwner
p3037
I0
sVHideInputBarFlag
p3038
I0
sVEncryChatRoomId
p3039
g44
sVAttrStatus
p3040
I102589
sVSnsFlag
p3041
I257
sVMemberCount
p3042
I0
sVOwnerUin
p3043
I0
sVAlias
p3044
g44
sVSignature
p3045
g44
sVContactFlag
p3046
I1
sVNickName
p3047
V\u707f\u82e5\u6668\u66e6
p3048
sVRemarkPYQuanPin
p3049
Vzhouyuxuan
p3050
sVHeadImgUrl
p3051
V/cgi-bin/mmwebwx-bin/webwxgeticon?seq=708767353&username=@9775ea633d1a932873f0506faf47e5217933d547a029faef230f971c71b8d6de&skey=@crypt_c4463405_f828997f90577ab38fb847ff6f45f664
p3052
sVSex
p3053
I1
sVStarFriend
p3054
I0
sVStatues
p3055
I0
sa(dp3056
VUserName
p3057
V@323ed2ed4f2f994340ac8fc82c9661af1fe3ebb31f138db0535e2f3fafaea387
p3058
sVCity
p3059
V\u5e7f\u5dde
p3060
sVDisplayName
p3061
g44
sVUniFriend
p3062
I0
sVMemberList
p3063
(lp3064
sVPYQuanPin
p3065
Vcrystal
p3066
sVRemarkPYInitial
p3067
VSAY
p3068
sVUin
p3069
I0
sVAppAccountFlag
p3070
I0
sVVerifyFlag
p3071
I0
sVProvince
p3072
V\u5e7f\u4e1c
p3073
sVKeyWord
p3074
g44
sVRemarkName
p3075
V\u8212\u5965\u6021
p3076
sVPYInitial
p3077
VCRYSTAL
p3078
sVChatRoomId
p3079
I0
sVIsOwner
p3080
I0
sVHideInputBarFlag
p3081
I0
sVEncryChatRoomId
p3082
g44
sVAttrStatus
p3083
I33656869
sVSnsFlag
p3084
I257
sVMemberCount
p3085
I0
sVOwnerUin
p3086
I0
sVAlias
p3087
g44
sVSignature
p3088
V\u62c9\u8428\u997f\u4e86\u53bb
p3089
sVContactFlag
p3090
I1
sVNickName
p3091
Vcrystal
p3092
sVRemarkPYQuanPin
p3093
Vshuaoyi
p3094
sVHeadImgUrl
p3095
V/cgi-bin/mmwebwx-bin/webwxgeticon?seq=708767358&username=@323ed2ed4f2f994340ac8fc82c9661af1fe3ebb31f138db0535e2f3fafaea387&skey=@crypt_c4463405_f828997f90577ab38fb847ff6f45f664
p3096
sVSex
p3097
I2
sVStarFriend
p3098
I0
sVStatues
p3099
I0
sa(dp3100
VUserName
p3101
V@9bd0791b67396f8831e00211ba32bdc083b659de24f84a978cfb16b9091fc855
p3102
sVCity
p3103
VSan Francisco
p3104
sVDisplayName
p3105
g44
sVUniFriend
p3106
I0
sVMemberList
p3107
(lp3108
sVPYQuanPin
p3109
VAyo
p3110
sVRemarkPYInitial
p3111
g44
sVUin
p3112
I0
sVAppAccountFlag
p3113
I0
sVVerifyFlag
p3114
I0
sVProvince
p3115
VCalifornia
p3116
sVKeyWord
p3117
g44
sVRemarkName
p3118
g44
sVPYInitial
p3119
VAYO
p3120
sVChatRoomId
p3121
I0
sVIsOwner
p3122
I0
sVHideInputBarFlag
p3123
I0
sVEncryChatRoomId
p3124
g44
sVAttrStatus
p3125
I135205
sVSnsFlag
p3126
I0
sVMemberCount
p3127
I0
sVOwnerUin
p3128
I0
sVAlias
p3129
g44
sVSignature
p3130
g44
sVContactFlag
p3131
I1
sVNickName
p3132
VAyo
p3133
sVRemarkPYQuanPin
p3134
g44
sVHeadImgUrl
p3135
V/cgi-bin/mmwebwx-bin/webwxgeticon?seq=681257495&username=@9bd0791b67396f8831e00211ba32bdc083b659de24f84a978cfb16b9091fc855&skey=@crypt_c4463405_f828997f90577ab38fb847ff6f45f664
p3136
sVSex
p3137
I1
sVStarFriend
p3138
I0
sVStatues
p3139
I0
sa(dp3140
VUserName
p3141
V@80b682b8118bb6c667177ac1c7a3acbc27ed8c12cefffee7effc031870f1afaa
p3142
sVCity
p3143
V\u4f73\u6728\u65af
p3144
sVDisplayName
p3145
g44
sVUniFriend
p3146
I0
sVMemberList
p3147
(lp3148
sVPYQuanPin
p3149
Vliusaihanspanclassemojiemoji1f340span
p3150
sVRemarkPYInitial
p3151
VLSH
p3152
sVUin
p3153
I0
sVAppAccountFlag
p3154
I0
sVVerifyFlag
p3155
I0
sVProvince
p3156
V\u9ed1\u9f99\u6c5f
p3157
sVKeyWord
p3158
g44
sVRemarkName
p3159
V\u5218\u601d\u6db5
p3160
sVPYInitial
p3161
VLSHSPANCLASSEMOJIEMOJI1F340SPAN
p3162
sVChatRoomId
p3163
I0
sVIsOwner
p3164
I0
sVHideInputBarFlag
p3165
I0
sVEncryChatRoomId
p3166
g44
sVAttrStatus
p3167
I102437
sVSnsFlag
p3168
I257
sVMemberCount
p3169
I0
sVOwnerUin
p3170
I0
sVAlias
p3171
g44
sVSignature
p3172
V\u5fc3\u6709\u6240\u671f \u5168\u529b\u4ee5\u8d74
p3173
sVContactFlag
p3174
I1
sVNickName
p3175
V\u5218\u601d\u6db5\U0001f340
p3176
sVRemarkPYQuanPin
p3177
Vliusaihan
p3178
sVHeadImgUrl
p3179
V/cgi-bin/mmwebwx-bin/webwxgeticon?seq=708767589&username=@80b682b8118bb6c667177ac1c7a3acbc27ed8c12cefffee7effc031870f1afaa&skey=@crypt_c4463405_f828997f90577ab38fb847ff6f45f664
p3180
sVSex
p3181
I2
sVStarFriend
p3182
I0
sVStatues
p3183
I0
sa(dp3184
VUserName
p3185
V@74460925545e31b9f79685b9d6b9dc8672df9cad42492dfffa8316ccf8a70ab6
p3186
sVCity
p3187
g44
sVDisplayName
p3188
g44
sVUniFriend
p3189
I0
sVMemberList
p3190
(lp3191
sVPYQuanPin
p3192
Vnixiangdubiexiang
p3193
sVRemarkPYInitial
p3194
VDYX
p3195
sVUin
p3196
I0
sVAppAccountFlag
p3197
I0
sVVerifyFlag
p3198
I0
sVProvince
p3199
g44
sVKeyWord
p3200
g44
sVRemarkName
p3201
V\u675c\u9896\u99a8
p3202
sVPYInitial
p3203
VNXDBX
p3204
sVChatRoomId
p3205
I0
sVIsOwner
p3206
I0
sVHideInputBarFlag
p3207
I0
sVEncryChatRoomId
p3208
g44
sVAttrStatus
p3209
I4197
sVSnsFlag
p3210
I1
sVMemberCount
p3211
I0
sVOwnerUin
p3212
I0
sVAlias
p3213
g44
sVSignature
p3214
g44
sVContactFlag
p3215
I1
sVNickName
p3216
V\u4f60\u60f3\u90fd\u522b\u60f3
p3217
sVRemarkPYQuanPin
p3218
Vduyingxin
p3219
sVHeadImgUrl
p3220
V/cgi-bin/mmwebwx-bin/webwxgeticon?seq=708767616&username=@74460925545e31b9f79685b9d6b9dc8672df9cad42492dfffa8316ccf8a70ab6&skey=@crypt_c4463405_f828997f90577ab38fb847ff6f45f664
p3221
sVSex
p3222
I2
sVStarFriend
p3223
I0
sVStatues
p3224
I0
sa(dp3225
VUserName
p3226
V@3fd82798dabb8b171a35af620329166ad2fc9582da9798952d28f590cd409c53
p3227
sVCity
p3228
V\u9e64\u5c97
p3229
sVDisplayName
p3230
g44
sVUniFriend
p3231
I0
sVMemberList
p3232
(lp3233
sVPYQuanPin
p3234
g44
sVRemarkPYInitial
p3235
VWS
p3236
sVUin
p3237
I0
sVAppAccountFlag
p3238
I0
sVVerifyFlag
p3239
I0
sVProvince
p3240
V\u9ed1\u9f99\u6c5f
p3241
sVKeyWord
p3242
g44
sVRemarkName
p3243
V\u738b\u5e05
p3244
sVPYInitial
p3245
g44
sVChatRoomId
p3246
I0
sVIsOwner
p3247
I0
sVHideInputBarFlag
p3248
I0
sVEncryChatRoomId
p3249
g44
sVAttrStatus
p3250
I233509
sVSnsFlag
p3251
I257
sVMemberCount
p3252
I0
sVOwnerUin
p3253
I0
sVAlias
p3254
g44
sVSignature
p3255
g44
sVContactFlag
p3256
I1
sVNickName
p3257
V~
p3258
sVRemarkPYQuanPin
p3259
Vwangshuai
p3260
sVHeadImgUrl
p3261
V/cgi-bin/mmwebwx-bin/webwxgeticon?seq=681297340&username=@3fd82798dabb8b171a35af620329166ad2fc9582da9798952d28f590cd409c53&skey=@crypt_c4463405_f828997f90577ab38fb847ff6f45f664
p3262
sVSex
p3263
I1
sVStarFriend
p3264
I0
sVStatues
p3265
I0
sa(dp3266
VUserName
p3267
V@9c8d74cf9a85f2ac55e573cfd16fc481c0b1a1637081a33614d15d605df7ec50
p3268
sVCity
p3269
g44
sVDisplayName
p3270
g44
sVUniFriend
p3271
I0
sVMemberList
p3272
(lp3273
sVPYQuanPin
p3274
Vaoliao
p3275
sVRemarkPYInitial
p3276
VHA
p3277
sVUin
p3278
I0
sVAppAccountFlag
p3279
I0
sVVerifyFlag
p3280
I0
sVProvince
p3281
g44
sVKeyWord
p3282
g44
sVRemarkName
p3283
V\u9ec4\u6fb3
p3284
sVPYInitial
p3285
VALA
p3286
sVChatRoomId
p3287
I0
sVIsOwner
p3288
I0
sVHideInputBarFlag
p3289
I0
sVEncryChatRoomId
p3290
g44
sVAttrStatus
p3291
I135269
sVSnsFlag
p3292
I257
sVMemberCount
p3293
I0
sVOwnerUin
p3294
I0
sVAlias
p3295
g44
sVSignature
p3296
g44
sVContactFlag
p3297
I1
sVNickName
p3298
V\u5965\u5229\u5965
p3299
sVRemarkPYQuanPin
p3300
Vhuangao
p3301
sVHeadImgUrl
p3302
V/cgi-bin/mmwebwx-bin/webwxgeticon?seq=708767810&username=@9c8d74cf9a85f2ac55e573cfd16fc481c0b1a1637081a33614d15d605df7ec50&skey=@crypt_c4463405_f828997f90577ab38fb847ff6f45f664
p3303
sVSex
p3304
I1
sVStarFriend
p3305
I0
sVStatues
p3306
I0
sa(dp3307
VUserName
p3308
V@4b9926a7786b9e6e111f7b656df06f405a48dd1a378519d4d73418a4fecb79ad
p3309
sVCity
p3310
V\u6e29\u5dde
p3311
sVDisplayName
p3312
g44
sVUniFriend
p3313
I0
sVMemberList
p3314
(lp3315
sVPYQuanPin
p3316
Vshandawang
p3317
sVRemarkPYInitial
p3318
VFFY
p3319
sVUin
p3320
I0
sVAppAccountFlag
p3321
I0
sVVerifyFlag
p3322
I0
sVProvince
p3323
V\u6d59\u6c5f
p3324
sVKeyWord
p3325
g44
sVRemarkName
p3326
V\u5085\u65b9\u5b87
p3327
sVPYInitial
p3328
VSDW
p3329
sVChatRoomId
p3330
I0
sVIsOwner
p3331
I0
sVHideInputBarFlag
p3332
I0
sVEncryChatRoomId
p3333
g44
sVAttrStatus
p3334
I102885
sVSnsFlag
p3335
I257
sVMemberCount
p3336
I0
sVOwnerUin
p3337
I0
sVAlias
p3338
g44
sVSignature
p3339
VYalla Yalla
p3340
sVContactFlag
p3341
I1
sVNickName
p3342
V\u5c71\u5927\u738b
p3343
sVRemarkPYQuanPin
p3344
Vfufangyu
p3345
sVHeadImgUrl
p3346
V/cgi-bin/mmwebwx-bin/webwxgeticon?seq=681322996&username=@4b9926a7786b9e6e111f7b656df06f405a48dd1a378519d4d73418a4fecb79ad&skey=@crypt_c4463405_f828997f90577ab38fb847ff6f45f664
p3347
sVSex
p3348
I1
sVStarFriend
p3349
I0
sVStatues
p3350
I0
sa(dp3351
VUserName
p3352
V@ea573da0b4d56fbd8304c992db39981f16ebea69a136db40af5a16e1e5f14938
p3353
sVCity
p3354
V\u6f2f\u6cb3
p3355
sVDisplayName
p3356
g44
sVUniFriend
p3357
I0
sVMemberList
p3358
(lp3359
sVPYQuanPin
p3360
Vyeah
p3361
sVRemarkPYInitial
p3362
VTY
p3363
sVUin
p3364
I0
sVAppAccountFlag
p3365
I0
sVVerifyFlag
p3366
I0
sVProvince
p3367
V\u6cb3\u5357
p3368
sVKeyWord
p3369
g44
sVRemarkName
p3370
V\u7530\u827a
p3371
sVPYInitial
p3372
VYEAH
p3373
sVChatRoomId
p3374
I0
sVIsOwner
p3375
I0
sVHideInputBarFlag
p3376
I0
sVEncryChatRoomId
p3377
g44
sVAttrStatus
p3378
I102589
sVSnsFlag
p3379
I1
sVMemberCount
p3380
I0
sVOwnerUin
p3381
I0
sVAlias
p3382
g44
sVSignature
p3383
g44
sVContactFlag
p3384
I1
sVNickName
p3385
Vyeah
p3386
sVRemarkPYQuanPin
p3387
Vtianyi
p3388
sVHeadImgUrl
p3389
V/cgi-bin/mmwebwx-bin/webwxgeticon?seq=681327097&username=@ea573da0b4d56fbd8304c992db39981f16ebea69a136db40af5a16e1e5f14938&skey=@crypt_c4463405_f828997f90577ab38fb847ff6f45f664
p3390
sVSex
p3391
I2
sVStarFriend
p3392
I0
sVStatues
p3393
I0
sa(dp3394
VUserName
p3395
V@83de12f761c229e232e252615ca44a5b7fce05c6a2389f96ded24e7542bd6c64
p3396
sVCity
p3397
g44
sVDisplayName
p3398
g44
sVUniFriend
p3399
I0
sVMemberList
p3400
(lp3401
sVPYQuanPin
p3402
Vxiaowangshu
p3403
sVRemarkPYInitial
p3404
VZL
p3405
sVUin
p3406
I0
sVAppAccountFlag
p3407
I0
sVVerifyFlag
p3408
I0
sVProvince
p3409
g44
sVKeyWord
p3410
g44
sVRemarkName
p3411
V\u8d75\u96f7
p3412
sVPYInitial
p3413
VXWS
p3414
sVChatRoomId
p3415
I0
sVIsOwner
p3416
I0
sVHideInputBarFlag
p3417
I0
sVEncryChatRoomId
p3418
g44
sVAttrStatus
p3419
I103013
sVSnsFlag
p3420
I273
sVMemberCount
p3421
I0
sVOwnerUin
p3422
I0
sVAlias
p3423
g44
sVSignature
p3424
V\u6d6e\u5149\u63a0\u5f71
p3425
sVContactFlag
p3426
I1
sVNickName
p3427
V\u7b11\u5fd8\u4e66
p3428
sVRemarkPYQuanPin
p3429
Vzhaolei
p3430
sVHeadImgUrl
p3431
V/cgi-bin/mmwebwx-bin/webwxgeticon?seq=681321950&username=@83de12f761c229e232e252615ca44a5b7fce05c6a2389f96ded24e7542bd6c64&skey=@crypt_c4463405_f828997f90577ab38fb847ff6f45f664
p3432
sVSex
p3433
I1
sVStarFriend
p3434
I0
sVStatues
p3435
I0
sa(dp3436
VUserName
p3437
V@1232ea44066385c523c9ce874a249526466547ee28c5c3133d5116a7db347d57
p3438
sVCity
p3439
g44
sVDisplayName
p3440
g44
sVUniFriend
p3441
I0
sVMemberList
p3442
(lp3443
sVPYQuanPin
p3444
Vee
p3445
sVRemarkPYInitial
p3446
VCXD
p3447
sVUin
p3448
I0
sVAppAccountFlag
p3449
I0
sVVerifyFlag
p3450
I0
sVProvince
p3451
g44
sVKeyWord
p3452
g44
sVRemarkName
p3453
V\u9648\u9521\u94ce
p3454
sVPYInitial
p3455
VEE
p3456
sVChatRoomId
p3457
I0
sVIsOwner
p3458
I0
sVHideInputBarFlag
p3459
I0
sVEncryChatRoomId
p3460
g44
sVAttrStatus
p3461
I6181
sVSnsFlag
p3462
I257
sVMemberCount
p3463
I0
sVOwnerUin
p3464
I0
sVAlias
p3465
g44
sVSignature
p3466
g44
sVContactFlag
p3467
I1
sVNickName
p3468
V\u5443\u5443
p3469
sVRemarkPYQuanPin
p3470
Vchenxiduo
p3471
sVHeadImgUrl
p3472
V/cgi-bin/mmwebwx-bin/webwxgeticon?seq=681319942&username=@1232ea44066385c523c9ce874a249526466547ee28c5c3133d5116a7db347d57&skey=@crypt_c4463405_f828997f90577ab38fb847ff6f45f664
p3473
sVSex
p3474
I1
sVStarFriend
p3475
I0
sVStatues
p3476
I0
sa(dp3477
VUserName
p3478
V@05bfcd3ffde534f1b7ede164aa110fb90a9f27b36486c39373e73674127c1921
p3479
sVCity
p3480
g44
sVDisplayName
p3481
g44
sVUniFriend
p3482
I0
sVMemberList
p3483
(lp3484
sVPYQuanPin
p3485
VH
p3486
sVRemarkPYInitial
p3487
VHLH
p3488
sVUin
p3489
I0
sVAppAccountFlag
p3490
I0
sVVerifyFlag
p3491
I0
sVProvince
p3492
g44
sVKeyWord
p3493
g44
sVRemarkName
p3494
V\u80e1\u6797\u8c6a
p3495
sVPYInitial
p3496
g3486
sVChatRoomId
p3497
I0
sVIsOwner
p3498
I0
sVHideInputBarFlag
p3499
I0
sVEncryChatRoomId
p3500
g44
sVAttrStatus
p3501
I6245
sVSnsFlag
p3502
I1
sVMemberCount
p3503
I0
sVOwnerUin
p3504
I0
sVAlias
p3505
g44
sVSignature
p3506
g44
sVContactFlag
p3507
I1
sVNickName
p3508
g3486
sVRemarkPYQuanPin
p3509
Vhulinhao
p3510
sVHeadImgUrl
p3511
V/cgi-bin/mmwebwx-bin/webwxgeticon?seq=681263817&username=@05bfcd3ffde534f1b7ede164aa110fb90a9f27b36486c39373e73674127c1921&skey=@crypt_c4463405_f828997f90577ab38fb847ff6f45f664
p3512
sVSex
p3513
I0
sVStarFriend
p3514
I0
sVStatues
p3515
I0
sa(dp3516
VUserName
p3517
V@2fc0f932f53e2e675bdfd9a32004cead580562972fb74994afb2e47678285775
p3518
sVCity
p3519
g44
sVDisplayName
p3520
g44
sVUniFriend
p3521
I0
sVMemberList
p3522
(lp3523
sVPYQuanPin
p3524
Vshiqi
p3525
sVRemarkPYInitial
p3526
VSQ
p3527
sVUin
p3528
I0
sVAppAccountFlag
p3529
I0
sVVerifyFlag
p3530
I0
sVProvince
p3531
g44
sVKeyWord
p3532
g44
sVRemarkName
p3533
V\u5e08\u742a
p3534
sVPYInitial
p3535
VSQ
p3536
sVChatRoomId
p3537
I0
sVIsOwner
p3538
I0
sVHideInputBarFlag
p3539
I0
sVEncryChatRoomId
p3540
g44
sVAttrStatus
p3541
I135205
sVSnsFlag
p3542
I257
sVMemberCount
p3543
I0
sVOwnerUin
p3544
I0
sVAlias
p3545
g44
sVSignature
p3546
V\u884c\u81f3\u671d\u96fe\u91cc,\u5760\u5165\u66ae\u4e91\u95f4
p3547
sVContactFlag
p3548
I1
sVNickName
p3549
V\u5341\u4e03
p3550
sVRemarkPYQuanPin
p3551
Vshiqi
p3552
sVHeadImgUrl
p3553
V/cgi-bin/mmwebwx-bin/webwxgeticon?seq=681326702&username=@2fc0f932f53e2e675bdfd9a32004cead580562972fb74994afb2e47678285775&skey=@crypt_c4463405_f828997f90577ab38fb847ff6f45f664
p3554
sVSex
p3555
I2
sVStarFriend
p3556
I0
sVStatues
p3557
I0
sa(dp3558
VUserName
p3559
V@243cbacfc5dfc589092d8d89b291b4373c15ffee23c9095e789973ead1fa3172
p3560
sVCity
p3561
V\u6210\u90fd
p3562
sVDisplayName
p3563
g44
sVUniFriend
p3564
I0
sVMemberList
p3565
(lp3566
sVPYQuanPin
p3567
VRyan
p3568
sVRemarkPYInitial
p3569
VLR
p3570
sVUin
p3571
I0
sVAppAccountFlag
p3572
I0
sVVerifyFlag
p3573
I0
sVProvince
p3574
V\u56db\u5ddd
p3575
sVKeyWord
p3576
g44
sVRemarkName
p3577
V\u5ed6\u745e
p3578
sVPYInitial
p3579
VRYAN
p3580
sVChatRoomId
p3581
I0
sVIsOwner
p3582
I0
sVHideInputBarFlag
p3583
I0
sVEncryChatRoomId
p3584
g44
sVAttrStatus
p3585
I236325
sVSnsFlag
p3586
I257
sVMemberCount
p3587
I0
sVOwnerUin
p3588
I0
sVAlias
p3589
g44
sVSignature
p3590
V\u6211\u5e0c\u671b\u4f60\u662f\u4e3a\u6211\u800c\u6765\u3002
p3591
sVContactFlag
p3592
I1
sVNickName
p3593
VRyan
p3594
sVRemarkPYQuanPin
p3595
Vliaorui
p3596
sVHeadImgUrl
p3597
V/cgi-bin/mmwebwx-bin/webwxgeticon?seq=708768119&username=@243cbacfc5dfc589092d8d89b291b4373c15ffee23c9095e789973ead1fa3172&skey=@crypt_c4463405_f828997f90577ab38fb847ff6f45f664
p3598
sVSex
p3599
I1
sVStarFriend
p3600
I0
sVStatues
p3601
I0
sa(dp3602
VUserName
p3603
V@153474dda8aebba52309e749f8317cbf4b5e427eb060b00210b08fa7fe0814b2
p3604
sVCity
p3605
V\u8861\u6c34
p3606
sVDisplayName
p3607
g44
sVUniFriend
p3608
I0
sVMemberList
p3609
(lp3610
sVPYQuanPin
p3611
Vlanwangwangdayang
p3612
sVRemarkPYInitial
p3613
VRBY
p3614
sVUin
p3615
I0
sVAppAccountFlag
p3616
I0
sVVerifyFlag
p3617
I0
sVProvince
p3618
V\u6cb3\u5317
p3619
sVKeyWord
p3620
g44
sVRemarkName
p3621
V\u4efb\u535a\u5b87
p3622
sVPYInitial
p3623
VLWWDY
p3624
sVChatRoomId
p3625
I0
sVIsOwner
p3626
I0
sVHideInputBarFlag
p3627
I0
sVEncryChatRoomId
p3628
g44
sVAttrStatus
p3629
I33558631
sVSnsFlag
p3630
I257
sVMemberCount
p3631
I0
sVOwnerUin
p3632
I0
sVAlias
p3633
g44
sVSignature
p3634
V\u4f60<span class="emoji emoji1f440"></span>\u4ec0\u4e48\u5462\uff1f\U0001f914 \u4f60<span class="emoji emoji1f440"></span>\u6211\uff1f\U0001f62f<span class="emoji emoji1f448"></span>\u597d\u554a \u90a3\u6211\u4e5f<span class="emoji emoji1f440"></span>\u4f60\u5462
p3635
sVContactFlag
p3636
I1
sVNickName
p3637
V\u61d2\u738b\u738b\u5927\u7f8a
p3638
sVRemarkPYQuanPin
p3639
Vrenboyu
p3640
sVHeadImgUrl
p3641
V/cgi-bin/mmwebwx-bin/webwxgeticon?seq=681327336&username=@153474dda8aebba52309e749f8317cbf4b5e427eb060b00210b08fa7fe0814b2&skey=@crypt_c4463405_f828997f90577ab38fb847ff6f45f664
p3642
sVSex
p3643
I1
sVStarFriend
p3644
I0
sVStatues
p3645
I0
sa(dp3646
VUserName
p3647
V@0397bf82b8c3863074d805bf76b7a03b3f5db1655bb3f9f0de4daa65920907fe
p3648
sVCity
p3649
V\u4ed9\u6843
p3650
sVDisplayName
p3651
g44
sVUniFriend
p3652
I0
sVMemberList
p3653
(lp3654
sVPYQuanPin
p3655
Vtangtang
p3656
sVRemarkPYInitial
p3657
VXY
p3658
sVUin
p3659
I0
sVAppAccountFlag
p3660
I0
sVVerifyFlag
p3661
I0
sVProvince
p3662
V\u6e56\u5317
p3663
sVKeyWord
p3664
g44
sVRemarkName
p3665
V\u5c0f\u59e8
p3666
sVPYInitial
p3667
VTT
p3668
sVChatRoomId
p3669
I0
sVIsOwner
p3670
I0
sVHideInputBarFlag
p3671
I0
sVEncryChatRoomId
p3672
g44
sVAttrStatus
p3673
I135205
sVSnsFlag
p3674
I1
sVMemberCount
p3675
I0
sVOwnerUin
p3676
I0
sVAlias
p3677
g44
sVSignature
p3678
V\u6c64\u6c64
p3679
sVContactFlag
p3680
I1
sVNickName
p3681
V\u6c64\u6c64
p3682
sVRemarkPYQuanPin
p3683
Vxiaoyi
p3684
sVHeadImgUrl
p3685
V/cgi-bin/mmwebwx-bin/webwxgeticon?seq=662627563&username=@0397bf82b8c3863074d805bf76b7a03b3f5db1655bb3f9f0de4daa65920907fe&skey=@crypt_c4463405_f828997f90577ab38fb847ff6f45f664
p3686
sVSex
p3687
I2
sVStarFriend
p3688
I0
sVStatues
p3689
I0
sa(dp3690
VUserName
p3691
V@c704ed749362c1900701596453b3dfa2
p3692
sVCity
p3693
g44
sVDisplayName
p3694
g44
sVUniFriend
p3695
I0
sVMemberList
p3696
(lp3697
sVPYQuanPin
p3698
Vshaomiamiaspanclassemojiemoji1f4a1span
p3699
sVRemarkPYInitial
p3700
VDY
p3701
sVUin
p3702
I0
sVAppAccountFlag
p3703
I0
sVVerifyFlag
p3704
I0
sVProvince
p3705
g44
sVKeyWord
p3706
Vmiy
p3707
sVRemarkName
p3708
V\u5bfc\u5458
p3709
sVPYInitial
p3710
VSMIAMIASPANCLASSEMOJIEMOJI1F4A1SPAN
p3711
sVChatRoomId
p3712
I0
sVIsOwner
p3713
I0
sVHideInputBarFlag
p3714
I0
sVEncryChatRoomId
p3715
g44
sVAttrStatus
p3716
I231463
sVSnsFlag
p3717
I305
sVMemberCount
p3718
I0
sVOwnerUin
p3719
I0
sVAlias
p3720
g44
sVSignature
p3721
V\u591a\u5403\u4e0d\u80d6\uff0c\u79ef\u6781\u5411\u4e0a
p3722
sVContactFlag
p3723
I1
sVNickName
p3724
V\u5c11miamia\U0001f4a1
p3725
sVRemarkPYQuanPin
p3726
Vdaoyuan
p3727
sVHeadImgUrl
p3728
V/cgi-bin/mmwebwx-bin/webwxgeticon?seq=681275329&username=@c704ed749362c1900701596453b3dfa2&skey=@crypt_c4463405_f828997f90577ab38fb847ff6f45f664
p3729
sVSex
p3730
I2
sVStarFriend
p3731
I0
sVStatues
p3732
I0
sa(dp3733
VUserName
p3734
V@8c608c314fdfe354aa9109946e155c52
p3735
sVCity
p3736
VLos Angeles
p3737
sVDisplayName
p3738
g44
sVUniFriend
p3739
I0
sVMemberList
p3740
(lp3741
sVPYQuanPin
p3742
g44
sVRemarkPYInitial
p3743
g44
sVUin
p3744
I0
sVAppAccountFlag
p3745
I0
sVVerifyFlag
p3746
I0
sVProvince
p3747
VCalifornia
p3748
sVKeyWord
p3749
Vliy
p3750
sVRemarkName
p3751
g44
sVPYInitial
p3752
g44
sVChatRoomId
p3753
I0
sVIsOwner
p3754
I0
sVHideInputBarFlag
p3755
I0
sVEncryChatRoomId
p3756
g44
sVAttrStatus
p3757
I104743
sVSnsFlag
p3758
I273
sVMemberCount
p3759
I0
sVOwnerUin
p3760
I0
sVAlias
p3761
g44
sVSignature
p3762
V\u7eb9\u8eab\u9884\u7ea6\u4ee5\u5b9a\u91d1\u4e3a\u51c6  \u4e0d\u63a5\u53d7\u53e3\u5934\u9884\u7ea6
p3763
sVContactFlag
p3764
I1
sVNickName
p3765
V.
p3766
sVRemarkPYQuanPin
p3767
g44
sVHeadImgUrl
p3768
V/cgi-bin/mmwebwx-bin/webwxgeticon?seq=681322322&username=@8c608c314fdfe354aa9109946e155c52&skey=@crypt_c4463405_f828997f90577ab38fb847ff6f45f664
p3769
sVSex
p3770
I1
sVStarFriend
p3771
I0
sVStatues
p3772
I0
sa(dp3773
VUserName
p3774
V@345c9bb7702797a220e6e6a2c2913fc37bd04799e358e93a450ab650c0aa845f
p3775
sVCity
p3776
V\u6df1\u5733
p3777
sVDisplayName
p3778
g44
sVUniFriend
p3779
I0
sVMemberList
p3780
(lp3781
sVPYQuanPin
p3782
Vyizhibuhaokandeyu
p3783
sVRemarkPYInitial
p3784
VLXY
p3785
sVUin
p3786
I0
sVAppAccountFlag
p3787
I0
sVVerifyFlag
p3788
I0
sVProvince
p3789
V\u5e7f\u4e1c
p3790
sVKeyWord
p3791
g44
sVRemarkName
p3792
V\u674e\u6821\u5b87
p3793
sVPYInitial
p3794
VYZBHKDY
p3795
sVChatRoomId
p3796
I0
sVIsOwner
p3797
I0
sVHideInputBarFlag
p3798
I0
sVEncryChatRoomId
p3799
g44
sVAttrStatus
p3800
I33656933
sVSnsFlag
p3801
I1
sVMemberCount
p3802
I0
sVOwnerUin
p3803
I0
sVAlias
p3804
g44
sVSignature
p3805
g44
sVContactFlag
p3806
I1
sVNickName
p3807
V\u4e00\u53ea\u4e0d\u597d\u770b\u7684\u9b5a
p3808
sVRemarkPYQuanPin
p3809
Vlixiaoyu
p3810
sVHeadImgUrl
p3811
V/cgi-bin/mmwebwx-bin/webwxgeticon?seq=681309550&username=@345c9bb7702797a220e6e6a2c2913fc37bd04799e358e93a450ab650c0aa845f&skey=@crypt_c4463405_f828997f90577ab38fb847ff6f45f664
p3812
sVSex
p3813
I1
sVStarFriend
p3814
I0
sVStatues
p3815
I0
sa(dp3816
VUserName
p3817
V@f39224f7b271b9c0c2bb575d8ede803f243952f532300d3fd966cff0e4eb9233
p3818
sVCity
p3819
V\u54c8\u5c14\u6ee8
p3820
sVDisplayName
p3821
g44
sVUniFriend
p3822
I0
sVMemberList
p3823
(lp3824
sVPYQuanPin
p3825
Vhuaere
p3826
sVRemarkPYInitial
p3827
VLJH
p3828
sVUin
p3829
I0
sVAppAccountFlag
p3830
I0
sVVerifyFlag
p3831
I0
sVProvince
p3832
V\u9ed1\u9f99\u6c5f
p3833
sVKeyWord
p3834
g44
sVRemarkName
p3835
V\u674e\u4fca\u864e
p3836
sVPYInitial
p3837
VHEE
p3838
sVChatRoomId
p3839
I0
sVIsOwner
p3840
I0
sVHideInputBarFlag
p3841
I0
sVEncryChatRoomId
p3842
g44
sVAttrStatus
p3843
I33788541
sVSnsFlag
p3844
I17
sVMemberCount
p3845
I0
sVOwnerUin
p3846
I0
sVAlias
p3847
g44
sVSignature
p3848
V\u80fd\u542c\u5f97\u5230\u6211\u4e48\uff1f
p3849
sVContactFlag
p3850
I1
sVNickName
p3851
V\u82b1\u513f\u54e6
p3852
sVRemarkPYQuanPin
p3853
Vlijunhu
p3854
sVHeadImgUrl
p3855
V/cgi-bin/mmwebwx-bin/webwxgeticon?seq=681323689&username=@f39224f7b271b9c0c2bb575d8ede803f243952f532300d3fd966cff0e4eb9233&skey=@crypt_c4463405_f828997f90577ab38fb847ff6f45f664
p3856
sVSex
p3857
I1
sVStarFriend
p3858
I0
sVStatues
p3859
I0
sa(dp3860
VUserName
p3861
V@b1cd4cd978d9f41387c85582fef0a0aee572b1c68473b98537b8cb194517312d
p3862
sVCity
p3863
V\u6b66\u6c49
p3864
sVDisplayName
p3865
g44
sVUniFriend
p3866
I0
sVMemberList
p3867
(lp3868
sVPYQuanPin
p3869
Vjianlegeyezhi
p3870
sVRemarkPYInitial
p3871
VYZ
p3872
sVUin
p3873
I0
sVAppAccountFlag
p3874
I0
sVVerifyFlag
p3875
I0
sVProvince
p3876
V\u6e56\u5317
p3877
sVKeyWord
p3878
g44
sVRemarkName
p3879
V\u53f6\u82b7
p3880
sVPYInitial
p3881
VJLGYZ
p3882
sVChatRoomId
p3883
I0
sVIsOwner
p3884
I0
sVHideInputBarFlag
p3885
I0
sVEncryChatRoomId
p3886
g44
sVAttrStatus
p3887
I102501
sVSnsFlag
p3888
I257
sVMemberCount
p3889
I0
sVOwnerUin
p3890
I0
sVAlias
p3891
g44
sVSignature
p3892
V\u63a5\u53d7\u6210\u957f\u4e5f\u63a5\u53d7\u6240\u6709\u805a\u6563.
p3893
sVContactFlag
p3894
I1
sVNickName
p3895
V\u6361\u4e86\u4e2a\u53f6\u82b7.
p3896
sVRemarkPYQuanPin
p3897
Vyezhi
p3898
sVHeadImgUrl
p3899
V/cgi-bin/mmwebwx-bin/webwxgeticon?seq=708768363&username=@b1cd4cd978d9f41387c85582fef0a0aee572b1c68473b98537b8cb194517312d&skey=@crypt_c4463405_f828997f90577ab38fb847ff6f45f664
p3900
sVSex
p3901
I2
sVStarFriend
p3902
I0
sVStatues
p3903
I0
sa(dp3904
VUserName
p3905
V@5cf0cc9532238d9430c81dad13b94f7da93481144c99abc5e7110c09d38a65f5
p3906
sVCity
p3907
V\u54c8\u5c14\u6ee8
p3908
sVDisplayName
p3909
g44
sVUniFriend
p3910
I0
sVMemberList
p3911
(lp3912
sVPYQuanPin
p3913
Vzhaiyuchibupan
p3914
sVRemarkPYInitial
p3915
VZY
p3916
sVUin
p3917
I0
sVAppAccountFlag
p3918
I0
sVVerifyFlag
p3919
I0
sVProvince
p3920
V\u9ed1\u9f99\u6c5f
p3921
sVKeyWord
p3922
g44
sVRemarkName
p3923
V\u7fdf\u5b87
p3924
sVPYInitial
p3925
VZYCBP
p3926
sVChatRoomId
p3927
I0
sVIsOwner
p3928
I0
sVHideInputBarFlag
p3929
I0
sVEncryChatRoomId
p3930
g44
sVAttrStatus
p3931
I236415
sVSnsFlag
p3932
I1
sVMemberCount
p3933
I0
sVOwnerUin
p3934
I0
sVAlias
p3935
g44
sVSignature
p3936
V\u539f\u6765\u5e74\u5c11\u7eee\u68a6\uff0c\u90fd\u662f\u955c\u82b1\u6c34\u6708
p3937
sVContactFlag
p3938
I1
sVNickName
p3939
V\u7fdf\u5b87\u5403\u4e0d\u80d6
p3940
sVRemarkPYQuanPin
p3941
Vzhaiyu
p3942
sVHeadImgUrl
p3943
V/cgi-bin/mmwebwx-bin/webwxgeticon?seq=708768246&username=@5cf0cc9532238d9430c81dad13b94f7da93481144c99abc5e7110c09d38a65f5&skey=@crypt_c4463405_f828997f90577ab38fb847ff6f45f664
p3944
sVSex
p3945
I1
sVStarFriend
p3946
I0
sVStatues
p3947
I0
sa(dp3948
VUserName
p3949
V@95c6f36b613738dca454c2a76fdeb5766f9c68a31a614cb1856008c6c706a9fe
p3950
sVCity
p3951
g44
sVDisplayName
p3952
g44
sVUniFriend
p3953
I0
sVMemberList
p3954
(lp3955
sVPYQuanPin
p3956
Vfeifei
p3957
sVRemarkPYInitial
p3958
VLWL
p3959
sVUin
p3960
I0
sVAppAccountFlag
p3961
I0
sVVerifyFlag
p3962
I0
sVProvince
p3963
g44
sVKeyWord
p3964
g44
sVRemarkName
p3965
V\u5ed6\u536b\u73b2
p3966
sVPYInitial
p3967
VFF
p3968
sVChatRoomId
p3969
I0
sVIsOwner
p3970
I0
sVHideInputBarFlag
p3971
I0
sVEncryChatRoomId
p3972
g44
sVAttrStatus
p3973
I102437
sVSnsFlag
p3974
I257
sVMemberCount
p3975
I0
sVOwnerUin
p3976
I0
sVAlias
p3977
g44
sVSignature
p3978
g44
sVContactFlag
p3979
I1
sVNickName
p3980
V\u871a\u871a
p3981
sVRemarkPYQuanPin
p3982
Vliaoweiling
p3983
sVHeadImgUrl
p3984
V/cgi-bin/mmwebwx-bin/webwxgeticon?seq=681325158&username=@95c6f36b613738dca454c2a76fdeb5766f9c68a31a614cb1856008c6c706a9fe&skey=@crypt_c4463405_f828997f90577ab38fb847ff6f45f664
p3985
sVSex
p3986
I2
sVStarFriend
p3987
I0
sVStatues
p3988
I0
sa(dp3989
VUserName
p3990
V@5ffcd9f6c7993f7d444aad1d1af315f978a2a060ed1db5ed13eeeb41b7c8d607
p3991
sVCity
p3992
g44
sVDisplayName
p3993
g44
sVUniFriend
p3994
I0
sVMemberList
p3995
(lp3996
sVPYQuanPin
p3997
Vrexinshiminxiaogao
p3998
sVRemarkPYInitial
p3999
VGLJ
p4000
sVUin
p4001
I0
sVAppAccountFlag
p4002
I0
sVVerifyFlag
p4003
I0
sVProvince
p4004
VCarlow
p4005
sVKeyWord
p4006
g44
sVRemarkName
p4007
V\u9ad8\u6797\u6770
p4008
sVPYInitial
p4009
VRXSMXG
p4010
sVChatRoomId
p4011
I0
sVIsOwner
p4012
I0
sVHideInputBarFlag
p4013
I0
sVEncryChatRoomId
p4014
g44
sVAttrStatus
p4015
I102437
sVSnsFlag
p4016
I1
sVMemberCount
p4017
I0
sVOwnerUin
p4018
I0
sVAlias
p4019
g44
sVSignature
p4020
V\u70ed\u7231\u4e16\u95f4\u4e07\u7269                                     .
p4021
sVContactFlag
p4022
I1
sVNickName
p4023
V\u70ed\u5fc3\u5e02\u6c11\u5c0f\u9ad8
p4024
sVRemarkPYQuanPin
p4025
Vgaolinjie
p4026
sVHeadImgUrl
p4027
V/cgi-bin/mmwebwx-bin/webwxgeticon?seq=681321160&username=@5ffcd9f6c7993f7d444aad1d1af315f978a2a060ed1db5ed13eeeb41b7c8d607&skey=@crypt_c4463405_f828997f90577ab38fb847ff6f45f664
p4028
sVSex
p4029
I2
sVStarFriend
p4030
I0
sVStatues
p4031
I0
sa(dp4032
VUserName
p4033
V@31bc47b600ec7daeb42ad3d45fddc47a7992838aa918609c4ff17cdc0639e51c
p4034
sVCity
p4035
g44
sVDisplayName
p4036
g44
sVUniFriend
p4037
I0
sVMemberList
p4038
(lp4039
sVPYQuanPin
p4040
Vxiaolitongxue
p4041
sVRemarkPYInitial
p4042
VLZW
p4043
sVUin
p4044
I0
sVAppAccountFlag
p4045
I0
sVVerifyFlag
p4046
I0
sVProvince
p4047
g44
sVKeyWord
p4048
g44
sVRemarkName
p4049
V\u674e\u54f2\u6587
p4050
sVPYInitial
p4051
VXLTX
p4052
sVChatRoomId
p4053
I0
sVIsOwner
p4054
I0
sVHideInputBarFlag
p4055
I0
sVEncryChatRoomId
p4056
g44
sVAttrStatus
p4057
I233573
sVSnsFlag
p4058
I257
sVMemberCount
p4059
I0
sVOwnerUin
p4060
I0
sVAlias
p4061
g44
sVSignature
p4062
g44
sVContactFlag
p4063
I1
sVNickName
p4064
V\u5c0f\u674e\u540c\u5b66
p4065
sVRemarkPYQuanPin
p4066
Vlizhewen
p4067
sVHeadImgUrl
p4068
V/cgi-bin/mmwebwx-bin/webwxgeticon?seq=708768469&username=@31bc47b600ec7daeb42ad3d45fddc47a7992838aa918609c4ff17cdc0639e51c&skey=@crypt_c4463405_f828997f90577ab38fb847ff6f45f664
p4069
sVSex
p4070
I0
sVStarFriend
p4071
I0
sVStatues
p4072
I0
sa(dp4073
VUserName
p4074
V@009ab7bbeb49090e81a9885dccd0622c8828b054315df0926a09966656e948bc
p4075
sVCity
p4076
g44
sVDisplayName
p4077
g44
sVUniFriend
p4078
I0
sVMemberList
p4079
(lp4080
sVPYQuanPin
p4081
Vzuanouqiaobiluo
p4082
sVRemarkPYInitial
p4083
VZR
p4084
sVUin
p4085
I0
sVAppAccountFlag
p4086
I0
sVVerifyFlag
p4087
I0
sVProvince
p4088
VMadrid
p4089
sVKeyWord
p4090
g44
sVRemarkName
p4091
V\u8d75\u745e
p4092
sVPYInitial
p4093
VZAOQBL
p4094
sVChatRoomId
p4095
I0
sVIsOwner
p4096
I0
sVHideInputBarFlag
p4097
I0
sVEncryChatRoomId
p4098
g44
sVAttrStatus
p4099
I135525
sVSnsFlag
p4100
I1
sVMemberCount
p4101
I0
sVOwnerUin
p4102
I0
sVAlias
p4103
g44
sVSignature
p4104
V\u8d2b\u50e7\u60f3\u5f00\u6316\u6398\u673a\uff0c\u5f00\u56de\u5927\u5510\u88c5\u5927\u903c\u3002
p4105
sVContactFlag
p4106
I1
sVNickName
p4107
V\u7956\u5b89\u533a\u4e54\u78a7\u841d
p4108
sVRemarkPYQuanPin
p4109
Vzhaorui
p4110
sVHeadImgUrl
p4111
V/cgi-bin/mmwebwx-bin/webwxgeticon?seq=708768488&username=@009ab7bbeb49090e81a9885dccd0622c8828b054315df0926a09966656e948bc&skey=@crypt_c4463405_f828997f90577ab38fb847ff6f45f664
p4112
sVSex
p4113
I2
sVStarFriend
p4114
I0
sVStatues
p4115
I0
sa(dp4116
VUserName
p4117
V@470fbae77d3b69344f25bf15bcc541be75b735a1bda1bebc64e808024cbddac4
p4118
sVCity
p4119
g44
sVDisplayName
p4120
g44
sVUniFriend
p4121
I0
sVMemberList
p4122
(lp4123
sVPYQuanPin
p4124
g44
sVRemarkPYInitial
p4125
VSHB
p4126
sVUin
p4127
I0
sVAppAccountFlag
p4128
I0
sVVerifyFlag
p4129
I0
sVProvince
p4130
g44
sVKeyWord
p4131
g44
sVRemarkName
p4132
V\u65bd\u6d69\u658c
p4133
sVPYInitial
p4134
g44
sVChatRoomId
p4135
I0
sVIsOwner
p4136
I0
sVHideInputBarFlag
p4137
I0
sVEncryChatRoomId
p4138
g44
sVAttrStatus
p4139
I103293
sVSnsFlag
p4140
I257
sVMemberCount
p4141
I0
sVOwnerUin
p4142
I0
sVAlias
p4143
g44
sVSignature
p4144
g44
sVContactFlag
p4145
I1
sVNickName
p4146
g3766
sVRemarkPYQuanPin
p4147
Vshihaobin
p4148
sVHeadImgUrl
p4149
V/cgi-bin/mmwebwx-bin/webwxgeticon?seq=708768506&username=@470fbae77d3b69344f25bf15bcc541be75b735a1bda1bebc64e808024cbddac4&skey=@crypt_c4463405_f828997f90577ab38fb847ff6f45f664
p4150
sVSex
p4151
I1
sVStarFriend
p4152
I0
sVStatues
p4153
I0
sa(dp4154
VUserName
p4155
V@685e4798324552f193d5ebd093af96405efa3fdc8679b7775acc268f75644f49
p4156
sVCity
p4157
g44
sVDisplayName
p4158
g44
sVUniFriend
p4159
I0
sVMemberList
p4160
(lp4161
sVPYQuanPin
p4162
g539
sVRemarkPYInitial
p4163
VCL
p4164
sVUin
p4165
I0
sVAppAccountFlag
p4166
I0
sVVerifyFlag
p4167
I0
sVProvince
p4168
g44
sVKeyWord
p4169
g44
sVRemarkName
p4170
V\u660c\u529b
p4171
sVPYInitial
p4172
g539
sVChatRoomId
p4173
I0
sVIsOwner
p4174
I0
sVHideInputBarFlag
p4175
I0
sVEncryChatRoomId
p4176
g44
sVAttrStatus
p4177
I113277
sVSnsFlag
p4178
I305
sVMemberCount
p4179
I0
sVOwnerUin
p4180
I0
sVAlias
p4181
g44
sVSignature
p4182
V\u8ff7\u5931\u7684\u4eba\u8ff7\u5931\u4e86
p4183
sVContactFlag
p4184
I65
sVNickName
p4185
g539
sVRemarkPYQuanPin
p4186
Vchangli
p4187
sVHeadImgUrl
p4188
V/cgi-bin/mmwebwx-bin/webwxgeticon?seq=681309411&username=@685e4798324552f193d5ebd093af96405efa3fdc8679b7775acc268f75644f49&skey=@crypt_c4463405_f828997f90577ab38fb847ff6f45f664
p4189
sVSex
p4190
I1
sVStarFriend
p4191
I1
sVStatues
p4192
I0
sa(dp4193
VUserName
p4194
V@21ae0ca570598e5b7573ffc4a8dd33b99e6d17f8919ea21cb4e94a3260a8e4e7
p4195
sVCity
p4196
V\u4e4c\u9c81\u6728\u9f50
p4197
sVDisplayName
p4198
g44
sVUniFriend
p4199
I0
sVMemberList
p4200
(lp4201
sVPYQuanPin
p4202
VSecondary
p4203
sVRemarkPYInitial
p4204
VYYC
p4205
sVUin
p4206
I0
sVAppAccountFlag
p4207
I0
sVVerifyFlag
p4208
I0
sVProvince
p4209
V\u65b0\u7586
p4210
sVKeyWord
p4211
g44
sVRemarkName
p4212
V\u6768\u5b87\u6668
p4213
sVPYInitial
p4214
VSECONDARY
p4215
sVChatRoomId
p4216
I0
sVIsOwner
p4217
I0
sVHideInputBarFlag
p4218
I0
sVEncryChatRoomId
p4219
g44
sVAttrStatus
p4220
I16888165
sVSnsFlag
p4221
I433
sVMemberCount
p4222
I0
sVOwnerUin
p4223
I0
sVAlias
p4224
g44
sVSignature
p4225
V\u5c81\u6708\u5176\u5b9e\u6709\u81ea\u91cd\u3002
p4226
sVContactFlag
p4227
I1
sVNickName
p4228
VSecondary.
p4229
sVRemarkPYQuanPin
p4230
Vyangyuchen
p4231
sVHeadImgUrl
p4232
V/cgi-bin/mmwebwx-bin/webwxgeticon?seq=708768610&username=@21ae0ca570598e5b7573ffc4a8dd33b99e6d17f8919ea21cb4e94a3260a8e4e7&skey=@crypt_c4463405_f828997f90577ab38fb847ff6f45f664
p4233
sVSex
p4234
I1
sVStarFriend
p4235
I0
sVStatues
p4236
I0
sa(dp4237
VUserName
p4238
V@84b3d8b1ad52eb536234a81b47b5e085e464a41043169ee2f073a82f47f77507
p4239
sVCity
p4240
VLos Angeles
p4241
sVDisplayName
p4242
g44
sVUniFriend
p4243
I0
sVMemberList
p4244
(lp4245
sVPYQuanPin
p4246
Vspanclassemojiemoji1f30aspanEdwwinwanmeixijiezhanshengyiqie
p4247
sVRemarkPYInitial
p4248
VYMY
p4249
sVUin
p4250
I0
sVAppAccountFlag
p4251
I0
sVVerifyFlag
p4252
I0
sVProvince
p4253
VCalifornia
p4254
sVKeyWord
p4255
g44
sVRemarkName
p4256
V\u4e8e\u660e\u6d0b
p4257
sVPYInitial
p4258
VSPANCLASSEMOJIEMOJI1F30ASPANEDWWINWMXJZSYQ
p4259
sVChatRoomId
p4260
I0
sVIsOwner
p4261
I0
sVHideInputBarFlag
p4262
I0
sVEncryChatRoomId
p4263
g44
sVAttrStatus
p4264
I102501
sVSnsFlag
p4265
I273
sVMemberCount
p4266
I0
sVOwnerUin
p4267
I0
sVAlias
p4268
g44
sVSignature
p4269
V\u54c1\u8d28\u4fdd\u969c \u4e00\u624b\u8d27\u6e90\u000a\u9ad8\u6548\u6c9f\u901a \u4ee3\u7406588\u000a\u795d\u8d2d\u7269\u6109\u5feb<span class="emoji emoji1f525"></span>(\u5efa\u8bae<span class="emoji emoji1f31f"></span>
p4270
sVContactFlag
p4271
I65537
sVNickName
p4272
V\U0001f30aEdwwin_ ( \u5b8c\u7f8e\u7ec6\u8282\u6218\u80dc\u4e00\u5207
p4273
sVRemarkPYQuanPin
p4274
Vyumingyang
p4275
sVHeadImgUrl
p4276
V/cgi-bin/mmwebwx-bin/webwxgeticon?seq=708767929&username=@84b3d8b1ad52eb536234a81b47b5e085e464a41043169ee2f073a82f47f77507&skey=@crypt_c4463405_f828997f90577ab38fb847ff6f45f664
p4277
sVSex
p4278
I1
sVStarFriend
p4279
I0
sVStatues
p4280
I0
sa(dp4281
VUserName
p4282
V@8d863e01412f3923101296f394b6e006bc83bd9104edae7499b91cfeba9e6671
p4283
sVCity
p4284
g44
sVDisplayName
p4285
g44
sVUniFriend
p4286
I0
sVMemberList
p4287
(lp4288
sVPYQuanPin
p4289
g44
sVRemarkPYInitial
p4290
VLQ
p4291
sVUin
p4292
I0
sVAppAccountFlag
p4293
I0
sVVerifyFlag
p4294
I0
sVProvince
p4295
g44
sVKeyWord
p4296
g44
sVRemarkName
p4297
V\u674e\u5f3a
p4298
sVPYInitial
p4299
g44
sVChatRoomId
p4300
I0
sVIsOwner
p4301
I0
sVHideInputBarFlag
p4302
I0
sVEncryChatRoomId
p4303
g44
sVAttrStatus
p4304
I102437
sVSnsFlag
p4305
I257
sVMemberCount
p4306
I0
sVOwnerUin
p4307
I0
sVAlias
p4308
g44
sVSignature
p4309
g44
sVContactFlag
p4310
I1
sVNickName
p4311
V\u3002
p4312
sVRemarkPYQuanPin
p4313
Vliqiang
p4314
sVHeadImgUrl
p4315
V/cgi-bin/mmwebwx-bin/webwxgeticon?seq=708768026&username=@8d863e01412f3923101296f394b6e006bc83bd9104edae7499b91cfeba9e6671&skey=@crypt_c4463405_f828997f90577ab38fb847ff6f45f664
p4316
sVSex
p4317
I1
sVStarFriend
p4318
I0
sVStatues
p4319
I0
sa(dp4320
VUserName
p4321
V@8ebe69e7b86fc02b1d103d1f70426ea9b5533ef37176da3259773538dd4f967f
p4322
sVCity
p4323
g44
sVDisplayName
p4324
g44
sVUniFriend
p4325
I0
sVMemberList
p4326
(lp4327
sVPYQuanPin
p4328
VWK250Kg
p4329
sVRemarkPYInitial
p4330
VWK
p4331
sVUin
p4332
I0
sVAppAccountFlag
p4333
I0
sVVerifyFlag
p4334
I0
sVProvince
p4335
V\u6e56\u5317
p4336
sVKeyWord
p4337
g44
sVRemarkName
p4338
V\u4e07\u79d1
p4339
sVPYInitial
p4340
VWK250KG
p4341
sVChatRoomId
p4342
I0
sVIsOwner
p4343
I0
sVHideInputBarFlag
p4344
I0
sVEncryChatRoomId
p4345
g44
sVAttrStatus
p4346
I36965
sVSnsFlag
p4347
I257
sVMemberCount
p4348
I0
sVOwnerUin
p4349
I0
sVAlias
p4350
g44
sVSignature
p4351
V\u6211\u5f88\u5fd9
p4352
sVContactFlag
p4353
I1
sVNickName
p4354
VWK250Kg
p4355
sVRemarkPYQuanPin
p4356
Vwanke
p4357
sVHeadImgUrl
p4358
V/cgi-bin/mmwebwx-bin/webwxgeticon?seq=681320503&username=@8ebe69e7b86fc02b1d103d1f70426ea9b5533ef37176da3259773538dd4f967f&skey=@crypt_c4463405_f828997f90577ab38fb847ff6f45f664
p4359
sVSex
p4360
I1
sVStarFriend
p4361
I0
sVStatues
p4362
I0
sa(dp4363
VUserName
p4364
V@d409f30d9c2591b4fe27e50ecfd3196a3499f4f8dcbd916cc0ceb8c521b28a0b
p4365
sVCity
p4366
V\u54c8\u5c14\u6ee8
p4367
sVDisplayName
p4368
g44
sVUniFriend
p4369
I0
sVMemberList
p4370
(lp4371
sVPYQuanPin
p4372
Vyagedianzijian
p4373
sVRemarkPYInitial
p4374
VLF
p4375
sVUin
p4376
I0
sVAppAccountFlag
p4377
I0
sVVerifyFlag
p4378
I0
sVProvince
p4379
V\u9ed1\u9f99\u6c5f
p4380
sVKeyWord
p4381
g44
sVRemarkName
p4382
V\u7406\u53d1
p4383
sVPYInitial
p4384
VYGDZJ
p4385
sVChatRoomId
p4386
I0
sVIsOwner
p4387
I0
sVHideInputBarFlag
p4388
I0
sVEncryChatRoomId
p4389
g44
sVAttrStatus
p4390
I102909
sVSnsFlag
p4391
I305
sVMemberCount
p4392
I0
sVOwnerUin
p4393
I0
sVAlias
p4394
g44
sVSignature
p4395
V\u526a\u5934\u53d1\u4e0d\u662f\u526a\u6389\u591a\u5c11\u5934\u53d1\u800c\u662f\u526a\u6389\u5934\u53d1\u4fee\u9970\u4f60\u7684\u8138\u578b
p4396
sVContactFlag
p4397
I65537
sVNickName
p4398
V\u96c5\u683c\u5e97\u5b50\u5065
p4399
sVRemarkPYQuanPin
p4400
Vlifa
p4401
sVHeadImgUrl
p4402
V/cgi-bin/mmwebwx-bin/webwxgeticon?seq=708768719&username=@d409f30d9c2591b4fe27e50ecfd3196a3499f4f8dcbd916cc0ceb8c521b28a0b&skey=@crypt_c4463405_f828997f90577ab38fb847ff6f45f664
p4403
sVSex
p4404
I1
sVStarFriend
p4405
I0
sVStatues
p4406
I0
sa(dp4407
VUserName
p4408
V@b869cae482138d0ef5d342c4b85859da6f5022255def84be2a98101d4dbcdec4
p4409
sVCity
p4410
V\u5e7f\u5dde
p4411
sVDisplayName
p4412
g44
sVUniFriend
p4413
I0
sVMemberList
p4414
(lp4415
sVPYQuanPin
p4416
Vjuzihuihuang
p4417
sVRemarkPYInitial
p4418
VXZY
p4419
sVUin
p4420
I0
sVAppAccountFlag
p4421
I0
sVVerifyFlag
p4422
I0
sVProvince
p4423
V\u5e7f\u4e1c
p4424
sVKeyWord
p4425
g44
sVRemarkName
p4426
V\u8096\u82b7\u6708
p4427
sVPYInitial
p4428
VJZHH
p4429
sVChatRoomId
p4430
I0
sVIsOwner
p4431
I0
sVHideInputBarFlag
p4432
I0
sVEncryChatRoomId
p4433
g44
sVAttrStatus
p4434
I104741
sVSnsFlag
p4435
I257
sVMemberCount
p4436
I0
sVOwnerUin
p4437
I0
sVAlias
p4438
g44
sVSignature
p4439
V\u5929\u4e0e\u5730\u5351\uff0c\u5c71\u4e0e\u6cfd\u5e73\u3002
p4440
sVContactFlag
p4441
I65
sVNickName
p4442
V\u6a58\u5b50\u8f89\u714c
p4443
sVRemarkPYQuanPin
p4444
Vxiaozhiyue
p4445
sVHeadImgUrl
p4446
V/cgi-bin/mmwebwx-bin/webwxgeticon?seq=681324485&username=@b869cae482138d0ef5d342c4b85859da6f5022255def84be2a98101d4dbcdec4&skey=@crypt_c4463405_f828997f90577ab38fb847ff6f45f664
p4447
sVSex
p4448
I2
sVStarFriend
p4449
I1
sVStatues
p4450
I0
sa(dp4451
VUserName
p4452
V@d8d82ead7c7b4c6df37ef40ee798d55e4876ac1bbea4c210676c6f4b6fbed72e
p4453
sVCity
p4454
g44
sVDisplayName
p4455
g44
sVUniFriend
p4456
I0
sVMemberList
p4457
(lp4458
sVPYQuanPin
p4459
VOliver
p4460
sVRemarkPYInitial
p4461
VYY
p4462
sVUin
p4463
I0
sVAppAccountFlag
p4464
I0
sVVerifyFlag
p4465
I0
sVProvince
p4466
VDubai
p4467
sVKeyWord
p4468
g44
sVRemarkName
p4469
V\u6768\u9633
p4470
sVPYInitial
p4471
VOLIVER
p4472
sVChatRoomId
p4473
I0
sVIsOwner
p4474
I0
sVHideInputBarFlag
p4475
I0
sVEncryChatRoomId
p4476
g44
sVAttrStatus
p4477
I102437
sVSnsFlag
p4478
I257
sVMemberCount
p4479
I0
sVOwnerUin
p4480
I0
sVAlias
p4481
g44
sVSignature
p4482
g44
sVContactFlag
p4483
I1
sVNickName
p4484
VOliver
p4485
sVRemarkPYQuanPin
p4486
Vyangyang
p4487
sVHeadImgUrl
p4488
V/cgi-bin/mmwebwx-bin/webwxgeticon?seq=681323746&username=@d8d82ead7c7b4c6df37ef40ee798d55e4876ac1bbea4c210676c6f4b6fbed72e&skey=@crypt_c4463405_f828997f90577ab38fb847ff6f45f664
p4489
sVSex
p4490
I1
sVStarFriend
p4491
I0
sVStatues
p4492
I0
sa(dp4493
VUserName
p4494
V@8068ccde7f785b30da5334329cd39f38a9730a2718a5c0e4f229f0115c4a9786
p4495
sVCity
p4496
g44
sVDisplayName
p4497
g44
sVUniFriend
p4498
I0
sVMemberList
p4499
(lp4500
sVPYQuanPin
p4501
Vguailishaonv
p4502
sVRemarkPYInitial
p4503
VLXY
p4504
sVUin
p4505
I0
sVAppAccountFlag
p4506
I0
sVVerifyFlag
p4507
I0
sVProvince
p4508
VMadrid
p4509
sVKeyWord
p4510
g44
sVRemarkName
p4511
V\u674e\u96ea\u9896
p4512
sVPYInitial
p4513
VGLSN
p4514
sVChatRoomId
p4515
I0
sVIsOwner
p4516
I0
sVHideInputBarFlag
p4517
I0
sVEncryChatRoomId
p4518
g44
sVAttrStatus
p4519
I102781
sVSnsFlag
p4520
I257
sVMemberCount
p4521
I0
sVOwnerUin
p4522
I0
sVAlias
p4523
g44
sVSignature
p4524
V<span class="emoji emoji2764"></span>ZC
p4525
sVContactFlag
p4526
I65537
sVNickName
p4527
V\u602a\u529b\u5c11\u5973.
p4528
sVRemarkPYQuanPin
p4529
Vlixueying
p4530
sVHeadImgUrl
p4531
V/cgi-bin/mmwebwx-bin/webwxgeticon?seq=681312355&username=@8068ccde7f785b30da5334329cd39f38a9730a2718a5c0e4f229f0115c4a9786&skey=@crypt_c4463405_f828997f90577ab38fb847ff6f45f664
p4532
sVSex
p4533
I2
sVStarFriend
p4534
I0
sVStatues
p4535
I0
sa(dp4536
VUserName
p4537
V@5053a1d928457c7c35b8e042ea1fe5a9485affff08843c0e038fc381116283e1
p4538
sVCity
p4539
V\u4f0a\u6625
p4540
sVDisplayName
p4541
g44
sVUniFriend
p4542
I0
sVMemberList
p4543
(lp4544
sVPYQuanPin
p4545
VHanhanhanspanclassemojiemoji1f31fspan
p4546
sVRemarkPYInitial
p4547
VXQH
p4548
sVUin
p4549
I0
sVAppAccountFlag
p4550
I0
sVVerifyFlag
p4551
I0
sVProvince
p4552
V\u9ed1\u9f99\u6c5f
p4553
sVKeyWord
p4554
g44
sVRemarkName
p4555
V\u5f90\u7426\u6657
p4556
sVPYInitial
p4557
VHANHANHANSPANCLASSEMOJIEMOJI1F31FSPAN
p4558
sVChatRoomId
p4559
I0
sVIsOwner
p4560
I0
sVHideInputBarFlag
p4561
I0
sVEncryChatRoomId
p4562
g44
sVAttrStatus
p4563
I69989
sVSnsFlag
p4564
I273
sVMemberCount
p4565
I0
sVOwnerUin
p4566
I0
sVAlias
p4567
g44
sVSignature
p4568
V\u8d2a\u8d22 \u6709\u9053\uff0c\u597d\u8272 \u6709\u54c1\u3002\u662f\u4e2a\u4fd7\u4eba
p4569
sVContactFlag
p4570
I1
sVNickName
p4571
VHanhanhan\U0001f31f
p4572
sVRemarkPYQuanPin
p4573
Vxuqihan
p4574
sVHeadImgUrl
p4575
V/cgi-bin/mmwebwx-bin/webwxgeticon?seq=681322737&username=@5053a1d928457c7c35b8e042ea1fe5a9485affff08843c0e038fc381116283e1&skey=@crypt_c4463405_f828997f90577ab38fb847ff6f45f664
p4576
sVSex
p4577
I1
sVStarFriend
p4578
I0
sVStatues
p4579
I0
sa(dp4580
VUserName
p4581
V@4be8d0703f687f3e41f2f8277fda0ebe48ee513747aecaffe1c46806c9582a00
p4582
sVCity
p4583
g44
sVDisplayName
p4584
g44
sVUniFriend
p4585
I0
sVMemberList
p4586
(lp4587
sVPYQuanPin
p4588
VKaeto????
p4589
sVRemarkPYInitial
p4590
VWJJ
p4591
sVUin
p4592
I0
sVAppAccountFlag
p4593
I0
sVVerifyFlag
p4594
I0
sVProvince
p4595
g44
sVKeyWord
p4596
g44
sVRemarkName
p4597
V\u738b\u4fca\u6770
p4598
sVPYInitial
p4599
VKAETO????
p4600
sVChatRoomId
p4601
I0
sVIsOwner
p4602
I0
sVHideInputBarFlag
p4603
I0
sVEncryChatRoomId
p4604
g44
sVAttrStatus
p4605
I33658237
sVSnsFlag
p4606
I17
sVMemberCount
p4607
I0
sVOwnerUin
p4608
I0
sVAlias
p4609
g44
sVSignature
p4610
V\u4eba\u4e11\u5c31\u8981\u591a\u8bfb\u4e66\U0001f644
p4611
sVContactFlag
p4612
I1
sVNickName
p4613
VKaeto \u208d\u1422.  .\u1422\u208e
p4614
sVRemarkPYQuanPin
p4615
Vwangjunjie
p4616
sVHeadImgUrl
p4617
V/cgi-bin/mmwebwx-bin/webwxgeticon?seq=708767077&username=@4be8d0703f687f3e41f2f8277fda0ebe48ee513747aecaffe1c46806c9582a00&skey=@crypt_c4463405_f828997f90577ab38fb847ff6f45f664
p4618
sVSex
p4619
I1
sVStarFriend
p4620
I0
sVStatues
p4621
I0
sa(dp4622
VUserName
p4623
V@2cacca89c985192fbd25f5ba343fb0d78338ab83bd3ce372723136bc41f8c12e
p4624
sVCity
p4625
V\u6c5f\u95e8
p4626
sVDisplayName
p4627
g44
sVUniFriend
p4628
I0
sVMemberList
p4629
(lp4630
sVPYQuanPin
p4631
Vsaisai
p4632
sVRemarkPYInitial
p4633
VMOM
p4634
sVUin
p4635
I0
sVAppAccountFlag
p4636
I0
sVVerifyFlag
p4637
I0
sVProvince
p4638
V\u5e7f\u4e1c
p4639
sVKeyWord
p4640
g44
sVRemarkName
p4641
Vmom
p4642
sVPYInitial
p4643
VSS
p4644
sVChatRoomId
p4645
I0
sVIsOwner
p4646
I0
sVHideInputBarFlag
p4647
I0
sVEncryChatRoomId
p4648
g44
sVAttrStatus
p4649
I102913
sVSnsFlag
p4650
I257
sVMemberCount
p4651
I0
sVOwnerUin
p4652
I0
sVAlias
p4653
g44
sVSignature
p4654
V\u5fc3\u6001\u597d\u6bd4\u4ec0\u4e48\u90fd\u597d
p4655
sVContactFlag
p4656
I65537
sVNickName
p4657
V\u601d\u601d
p4658
sVRemarkPYQuanPin
p4659
Vmom
p4660
sVHeadImgUrl
p4661
V/cgi-bin/mmwebwx-bin/webwxgeticon?seq=681320534&username=@2cacca89c985192fbd25f5ba343fb0d78338ab83bd3ce372723136bc41f8c12e&skey=@crypt_c4463405_f828997f90577ab38fb847ff6f45f664
p4662
sVSex
p4663
I2
sVStarFriend
p4664
I0
sVStatues
p4665
I0
sa(dp4666
VUserName
p4667
V@aaa8881976992c4005ef84cf005ac2d50ac92752d71f30313b0e5beda1597145
p4668
sVCity
p4669
V\u9a7b\u9a6c\u5e97
p4670
sVDisplayName
p4671
g44
sVUniFriend
p4672
I0
sVMemberList
p4673
(lp4674
sVPYQuanPin
p4675
Vbenben
p4676
sVRemarkPYInitial
p4677
VDAD
p4678
sVUin
p4679
I0
sVAppAccountFlag
p4680
I0
sVVerifyFlag
p4681
I0
sVProvince
p4682
V\u6cb3\u5357
p4683
sVKeyWord
p4684
g44
sVRemarkName
p4685
Vdad
p4686
sVPYInitial
p4687
VBB
p4688
sVChatRoomId
p4689
I0
sVIsOwner
p4690
I0
sVHideInputBarFlag
p4691
I0
sVEncryChatRoomId
p4692
g44
sVAttrStatus
p4693
I135205
sVSnsFlag
p4694
I257
sVMemberCount
p4695
I0
sVOwnerUin
p4696
I0
sVAlias
p4697
g44
sVSignature
p4698
g44
sVContactFlag
p4699
I1
sVNickName
p4700
V\u7287\u7287
p4701
sVRemarkPYQuanPin
p4702
Vdad
p4703
sVHeadImgUrl
p4704
V/cgi-bin/mmwebwx-bin/webwxgeticon?seq=681212193&username=@aaa8881976992c4005ef84cf005ac2d50ac92752d71f30313b0e5beda1597145&skey=@crypt_c4463405_f828997f90577ab38fb847ff6f45f664
p4705
sVSex
p4706
I1
sVStarFriend
p4707
I0
sVStatues
p4708
I0
sasS'chatroomList'
p4709
(lp4710
(dp4711
VUserName
p4712
V@@597a60f80d9286ff37c880e123d28d8698e6174aed05e1ad3d839671ddf2d7d6
p4713
sVCity
p4714
g44
sVDisplayName
p4715
g44
sVUniFriend
p4716
I0
sS'self'
p4717
(dp4718
g36
g31
sg37
g38
sg39
g38
sg40
I0
sg61
I0
sg41
(lp4719
sg43
g44
sg45
g44
sg71
I1424655402
sg47
I0
sg48
I0
sg49
g38
sg50
g38
sg51
g44
sg52
g44
sg53
I0
sg54
I0
sg55
I1
sg56
g38
sg57
I0
sg59
I16
sg60
I0
sg58
I0
sg62
g38
sg63
g64
sg65
I0
sg66
g67
sg68
g44
sg69
g70
sg46
I1
sg72
I0
sg73
I0
ssVMemberList
p4720
(lp4721
sVPYQuanPin
p4722
V20203lanqiaobeishengsai
p4723
sVRemarkPYInitial
p4724
g44
sVSex
p4725
I0
sVAppAccountFlag
p4726
I0
sVVerifyFlag
p4727
I0
sVProvince
p4728
g44
sVKeyWord
p4729
g44
sVRemarkName
p4730
g44
sVPYInitial
p4731
V20203LQBSS
p4732
sVIsOwner
p4733
I0
sVChatRoomId
p4734
I0
sVHideInputBarFlag
p4735
I0
sVEncryChatRoomId
p4736
g44
sVAttrStatus
p4737
I0
sVSnsFlag
p4738
I0
sVMemberCount
p4739
I0
sVOwnerUin
p4740
I0
sVAlias
p4741
g44
sVSignature
p4742
g44
sVContactFlag
p4743
I1
sVNickName
p4744
V2020.3  \u84dd\u6865\u676f\u7701\u8d5b
p4745
sVRemarkPYQuanPin
p4746
g44
sVHeadImgUrl
p4747
V/cgi-bin/mmwebwx-bin/webwxgetheadimg?seq=708767814&username=@@597a60f80d9286ff37c880e123d28d8698e6174aed05e1ad3d839671ddf2d7d6&skey=@crypt_c4463405_f828997f90577ab38fb847ff6f45f664
p4748
sVUin
p4749
I0
sVStarFriend
p4750
I0
sVStatues
p4751
I0
sS'isAdmin'
p4752
Nsa(dp4753
VUserName
p4754
V@@4c31eb85589c23345e40624c19500ea2d12222c4039d0ed7a4e5d186866d8adc
p4755
sVCity
p4756
g44
sVDisplayName
p4757
g44
sVUniFriend
p4758
I0
sg4717
(dp4759
g36
g31
sg37
g38
sg39
g38
sg40
I0
sg61
I0
sg41
(lp4760
sg43
g44
sg45
g44
sg71
I1424655402
sg47
I0
sg48
I0
sg49
g38
sg50
g38
sg51
g44
sg52
g44
sg53
I0
sg54
I0
sg55
I1
sg56
g38
sg57
I0
sg59
I16
sg60
I0
sg58
I0
sg62
g38
sg63
g64
sg65
I0
sg66
g67
sg68
g44
sg69
g70
sg46
I1
sg72
I0
sg73
I0
ssVMemberList
p4761
(lp4762
sVPYQuanPin
p4763
Vwanglaoanquansibanspanclassemojiemoji2b50span?
p4764
sVRemarkPYInitial
p4765
g44
sVSex
p4766
I0
sVAppAccountFlag
p4767
I0
sVVerifyFlag
p4768
I0
sVProvince
p4769
g44
sVKeyWord
p4770
g44
sVRemarkName
p4771
g44
sVPYInitial
p4772
VWLAQSBSPANCLASSEMOJIEMOJI2B50SPAN?
p4773
sVIsOwner
p4774
I0
sVChatRoomId
p4775
I0
sVHideInputBarFlag
p4776
I0
sVEncryChatRoomId
p4777
g44
sVAttrStatus
p4778
I0
sVSnsFlag
p4779
I0
sVMemberCount
p4780
I0
sVOwnerUin
p4781
I0
sVAlias
p4782
g44
sVSignature
p4783
g44
sVContactFlag
p4784
I1
sVNickName
p4785
V\u7f51\u7edc\u5b89\u5168\u56db\u73ed\u2b50\ufe0f
p4786
sVRemarkPYQuanPin
p4787
g44
sVHeadImgUrl
p4788
V/cgi-bin/mmwebwx-bin/webwxgetheadimg?seq=681327369&username=@@4c31eb85589c23345e40624c19500ea2d12222c4039d0ed7a4e5d186866d8adc&skey=@crypt_c4463405_f828997f90577ab38fb847ff6f45f664
p4789
sVUin
p4790
I0
sVStarFriend
p4791
I0
sVStatues
p4792
I0
sg4752
Nsa(dp4793
VUserName
p4794
V@@4295ff2120f34d44075277a433047c2bfd2e6e11a9a3e5062646d35d64b41f34
p4795
sVCity
p4796
g44
sVDisplayName
p4797
g44
sVUniFriend
p4798
I0
sg4717
(dp4799
g36
g31
sg37
g38
sg39
g38
sg40
I0
sg61
I0
sg41
(lp4800
sg43
g44
sg45
g44
sg71
I1424655402
sg47
I0
sg48
I0
sg49
g38
sg50
g38
sg51
g44
sg52
g44
sg53
I0
sg54
I0
sg55
I1
sg56
g38
sg57
I0
sg59
I16
sg60
I0
sg58
I0
sg62
g38
sg63
g64
sg65
I0
sg66
g67
sg68
g44
sg69
g70
sg46
I1
sg72
I0
sg73
I0
ssVMemberList
p4801
(lp4802
sVPYQuanPin
p4803
Vzhuaizhuai?weiquan
p4804
sVRemarkPYInitial
p4805
g44
sVSex
p4806
I0
sVAppAccountFlag
p4807
I0
sVVerifyFlag
p4808
I0
sVProvince
p4809
g44
sVKeyWord
p4810
g44
sVRemarkName
p4811
g44
sVPYInitial
p4812
VZZ?WQ
p4813
sVIsOwner
p4814
I0
sVChatRoomId
p4815
I0
sVHideInputBarFlag
p4816
I0
sVEncryChatRoomId
p4817
g44
sVAttrStatus
p4818
I0
sVSnsFlag
p4819
I0
sVMemberCount
p4820
I0
sVOwnerUin
p4821
I0
sVAlias
p4822
g44
sVSignature
p4823
g44
sVContactFlag
p4824
I3
sVNickName
p4825
V\u8f6c\u8f6c\U0001f4db\u7ef4\u6743
p4826
sVRemarkPYQuanPin
p4827
g44
sVHeadImgUrl
p4828
V/cgi-bin/mmwebwx-bin/webwxgetheadimg?seq=708768279&username=@@4295ff2120f34d44075277a433047c2bfd2e6e11a9a3e5062646d35d64b41f34&skey=@crypt_c4463405_f828997f90577ab38fb847ff6f45f664
p4829
sVUin
p4830
I0
sVStarFriend
p4831
I0
sVStatues
p4832
I0
sg4752
Nsa(dp4833
VUserName
p4834
V@@6f72fba7ccf19158ba8c570db5db0d1832bbd68cb60ea9f63d86b999d2df53bb
p4835
sVCity
p4836
g44
sVDisplayName
p4837
g44
sVUniFriend
p4838
I0
sg4717
(dp4839
g36
g31
sg37
g38
sg39
g38
sg40
I0
sg61
I0
sg41
(lp4840
sg43
g44
sg45
g44
sg71
I1424655402
sg47
I0
sg48
I0
sg49
g38
sg50
g38
sg51
g44
sg52
g44
sg53
I0
sg54
I0
sg55
I1
sg56
g38
sg57
I0
sg59
I16
sg60
I0
sg58
I0
sg62
g38
sg63
g64
sg65
I0
sg66
g67
sg68
g44
sg69
g70
sg46
I1
sg72
I0
sg73
I0
ssVMemberList
p4841
(lp4842
sVPYQuanPin
p4843
V740woguaxiaofendui
p4844
sVRemarkPYInitial
p4845
g44
sVSex
p4846
I0
sVAppAccountFlag
p4847
I0
sVVerifyFlag
p4848
I0
sVProvince
p4849
g44
sVKeyWord
p4850
g44
sVRemarkName
p4851
g44
sVPYInitial
p4852
V740WGXFD
p4853
sVIsOwner
p4854
I1
sVChatRoomId
p4855
I0
sVHideInputBarFlag
p4856
I0
sVEncryChatRoomId
p4857
g44
sVAttrStatus
p4858
I0
sVSnsFlag
p4859
I0
sVMemberCount
p4860
I0
sVOwnerUin
p4861
I0
sVAlias
p4862
g44
sVSignature
p4863
g44
sVContactFlag
p4864
I1
sVNickName
p4865
V740\u7a9d\u74dc\u5c0f\u5206\u961f
p4866
sVRemarkPYQuanPin
p4867
g44
sVHeadImgUrl
p4868
V/cgi-bin/mmwebwx-bin/webwxgetheadimg?seq=662634288&username=@@6f72fba7ccf19158ba8c570db5db0d1832bbd68cb60ea9f63d86b999d2df53bb&skey=@crypt_c4463405_f828997f90577ab38fb847ff6f45f664
p4869
sVUin
p4870
I0
sVStarFriend
p4871
I0
sVStatues
p4872
I1
sg4752
Nsa(dp4873
VUserName
p4874
V@@af74c129f02791284defecb4aa42cde8686bb1075e4de6bcd8412a14ee9a239e
p4875
sVCity
p4876
g44
sVDisplayName
p4877
g44
sVUniFriend
p4878
I0
sg4717
(dp4879
g36
g31
sg37
g38
sg39
g38
sg40
I0
sg61
I0
sg41
(lp4880
sg43
g44
sg45
g44
sg71
I1424655402
sg47
I0
sg48
I0
sg49
g38
sg50
g38
sg51
g44
sg52
g44
sg53
I0
sg54
I0
sg55
I1
sg56
g38
sg57
I0
sg59
I16
sg60
I0
sg58
I0
sg62
g38
sg63
g64
sg65
I0
sg66
g67
sg68
g44
sg69
g70
sg46
I1
sg72
I0
sg73
I0
ssVMemberList
p4881
(lp4882
sVPYQuanPin
p4883
Vspanclassemojiemoji1f510span2020nianhanjialiuxiaospanclassemojiemoji1f510span
p4884
sVRemarkPYInitial
p4885
g44
sVSex
p4886
I0
sVAppAccountFlag
p4887
I0
sVVerifyFlag
p4888
I0
sVProvince
p4889
g44
sVKeyWord
p4890
g44
sVRemarkName
p4891
g44
sVPYInitial
p4892
VSPANCLASSEMOJIEMOJI1F510SPAN2020NHJLXSPANCLASSEMOJIEMOJI1F510SPAN
p4893
sVIsOwner
p4894
I0
sVChatRoomId
p4895
I0
sVHideInputBarFlag
p4896
I0
sVEncryChatRoomId
p4897
g44
sVAttrStatus
p4898
I0
sVSnsFlag
p4899
I0
sVMemberCount
p4900
I0
sVOwnerUin
p4901
I0
sVAlias
p4902
g44
sVSignature
p4903
g44
sVContactFlag
p4904
I3
sVNickName
p4905
V\U0001f5102020\u5e74\u5bd2\u5047\u7559\u6821\U0001f510
p4906
sVRemarkPYQuanPin
p4907
g44
sVHeadImgUrl
p4908
V/cgi-bin/mmwebwx-bin/webwxgetheadimg?seq=708768206&username=@@af74c129f02791284defecb4aa42cde8686bb1075e4de6bcd8412a14ee9a239e&skey=@crypt_c4463405_f828997f90577ab38fb847ff6f45f664
p4909
sVUin
p4910
I0
sVStarFriend
p4911
I0
sVStatues
p4912
I1
sg4752
Nsa(dp4913
VUserName
p4914
V@@3854fb229274d2ec0baad829201041f66d30c9482852b4b89135b3ad241732a9
p4915
sVCity
p4916
g44
sVDisplayName
p4917
g44
sVUniFriend
p4918
I0
sg4717
(dp4919
g36
g31
sg37
g38
sg39
g38
sg40
I0
sg61
I0
sg41
(lp4920
sg43
g44
sg45
g44
sg71
I1424655402
sg47
I0
sg48
I0
sg49
g38
sg50
g38
sg51
g44
sg52
g44
sg53
I0
sg54
I0
sg55
I1
sg56
g38
sg57
I0
sg59
I16
sg60
I0
sg58
I0
sg62
g38
sg63
g64
sg65
I0
sg66
g67
sg68
g44
sg69
g70
sg46
I1
sg72
I0
sg73
I0
ssVMemberList
p4921
(lp4922
sVPYQuanPin
p4923
V20192020aizibingmukequn
p4924
sVRemarkPYInitial
p4925
g44
sVSex
p4926
I0
sVAppAccountFlag
p4927
I0
sVVerifyFlag
p4928
I0
sVProvince
p4929
g44
sVKeyWord
p4930
g44
sVRemarkName
p4931
g44
sVPYInitial
p4932
V20192020AZBMKQ
p4933
sVIsOwner
p4934
I0
sVChatRoomId
p4935
I0
sVHideInputBarFlag
p4936
I0
sVEncryChatRoomId
p4937
g44
sVAttrStatus
p4938
I0
sVSnsFlag
p4939
I0
sVMemberCount
p4940
I0
sVOwnerUin
p4941
I0
sVAlias
p4942
g44
sVSignature
p4943
g44
sVContactFlag
p4944
I1
sVNickName
p4945
V2019\u20142020\u827e\u6ecb\u75c5\u6155\u8bfe\u7fa4
p4946
sVRemarkPYQuanPin
p4947
g44
sVHeadImgUrl
p4948
V/cgi-bin/mmwebwx-bin/webwxgetheadimg?seq=708768816&username=@@3854fb229274d2ec0baad829201041f66d30c9482852b4b89135b3ad241732a9&skey=@crypt_c4463405_f828997f90577ab38fb847ff6f45f664
p4949
sVUin
p4950
I0
sVStarFriend
p4951
I0
sVStatues
p4952
I0
sg4752
Nsa(dp4953
VUserName
p4954
V@@310d1649439dd73c27510349e5e04a777b184630d400d56d7c235e2251cd7e3e
p4955
sVCity
p4956
g44
sVDisplayName
p4957
g44
sVUniFriend
p4958
I0
sg4717
(dp4959
VUserName
p4960
V@6426b725650bc2999423ed06ff061d17528f0a546baad59af9805da79c3b8b36
p4961
sVRemarkPYQuanPin
p4962
g44
sVDisplayName
p4963
g44
sVKeyWord
p4964
g44
sVPYInitial
p4965
g44
sVUin
p4966
I0
sVMemberStatus
p4967
I0
sVPYQuanPin
p4968
g44
sVRemarkPYInitial
p4969
g44
sVNickName
p4970
VAlpha
p4971
sVAttrStatus
p4972
I33788197
ssVMemberList
p4973
(lp4974
(dp4975
VUserName
p4976
V@81f9a8d30bd2aada27aa90ba3a26dcc49555e917f810664dce191a514df96b3a
p4977
sVRemarkPYQuanPin
p4978
g44
sVDisplayName
p4979
g44
sVKeyWord
p4980
g44
sVPYInitial
p4981
g44
sVUin
p4982
I0
sVMemberStatus
p4983
I0
sVPYQuanPin
p4984
g44
sVRemarkPYInitial
p4985
g44
sVNickName
p4986
V\u8096\u4f1f\u534e
p4987
sVAttrStatus
p4988
I4129
sa(dp4989
VUserName
p4990
V@2cacca89c985192fbd25f5ba343fb0d78338ab83bd3ce372723136bc41f8c12e
p4991
sVRemarkPYQuanPin
p4992
g44
sVDisplayName
p4993
g44
sVKeyWord
p4994
g44
sVPYInitial
p4995
g44
sVUin
p4996
I0
sVMemberStatus
p4997
I0
sVPYQuanPin
p4998
g44
sVRemarkPYInitial
p4999
g44
sVNickName
p5000
V\u601d\u601d
p5001
sVAttrStatus
p5002
I102913
sa(dp5003
VUserName
p5004
V@0397bf82b8c3863074d805bf76b7a03b3f5db1655bb3f9f0de4daa65920907fe
p5005
sVRemarkPYQuanPin
p5006
g44
sVDisplayName
p5007
g44
sVKeyWord
p5008
g44
sVPYInitial
p5009
g44
sVUin
p5010
I0
sVMemberStatus
p5011
I0
sVPYQuanPin
p5012
g44
sVRemarkPYInitial
p5013
g44
sVNickName
p5014
V\u6c64\u6c64
p5015
sVAttrStatus
p5016
I135205
sa(dp5017
VUserName
p5018
V@aaa8881976992c4005ef84cf005ac2d50ac92752d71f30313b0e5beda1597145
p5019
sVRemarkPYQuanPin
p5020
g44
sVDisplayName
p5021
g44
sVKeyWord
p5022
g44
sVPYInitial
p5023
g44
sVUin
p5024
I0
sVMemberStatus
p5025
I0
sVPYQuanPin
p5026
g44
sVRemarkPYInitial
p5027
g44
sVNickName
p5028
V\u7287\u7287
p5029
sVAttrStatus
p5030
I135205
sa(dp5031
VUserName
p5032
V@bcf3ccdddedf937f8804ab675a37e6bc3a5201fb2abc706da9af0795dd42f172
p5033
sVRemarkPYQuanPin
p5034
g44
sVDisplayName
p5035
g44
sVKeyWord
p5036
g44
sVPYInitial
p5037
g44
sVUin
p5038
I0
sVMemberStatus
p5039
I0
sVPYQuanPin
p5040
g44
sVRemarkPYInitial
p5041
g44
sVNickName
p5042
V\u5e7f\u5dde\u670d\u9970(=^\uff65^=)\u91cd\u6e20\u5206\u5e97
p5043
sVAttrStatus
p5044
I102525
sa(dp5045
VUserName
p5046
V@9e3a2925a83b4554ff12ff9482decf8b0a199c571f2c391b267f7b023c770f67
p5047
sVRemarkPYQuanPin
p5048
g44
sVDisplayName
p5049
g44
sVKeyWord
p5050
g44
sVPYInitial
p5051
g44
sVUin
p5052
I0
sVMemberStatus
p5053
I0
sVPYQuanPin
p5054
g44
sVRemarkPYInitial
p5055
g44
sVNickName
p5056
V\u601d\u601d
p5057
sVAttrStatus
p5058
I4385
sa(dp5059
VUserName
p5060
V@1402adce0d00729096a38ff6fc80ca24c02d0ed2b707e468afd6d49a89491a45
p5061
sVRemarkPYQuanPin
p5062
g44
sVDisplayName
p5063
g44
sVKeyWord
p5064
g44
sVPYInitial
p5065
g44
sVUin
p5066
I0
sVMemberStatus
p5067
I0
sVPYQuanPin
p5068
g44
sVRemarkPYInitial
p5069
g44
sVNickName
p5070
V\u66fe\u5609\u51a0
p5071
sVAttrStatus
p5072
I4133
sa(dp5073
VUserName
p5074
V@325ff7eb36ad737361cbdb1f3a835d9efab79cbb97b00e5ee20502618880d12a
p5075
sVRemarkPYQuanPin
p5076
g44
sVDisplayName
p5077
g44
sVKeyWord
p5078
g44
sVPYInitial
p5079
g44
sVUin
p5080
I0
sVMemberStatus
p5081
I0
sVPYQuanPin
p5082
g44
sVRemarkPYInitial
p5083
g44
sVNickName
p5084
V\u5609\u5609
p5085
sVAttrStatus
p5086
I98597
sa(dp5087
VUserName
p5088
V@49de217330657c0171358419e4b32f7af904df286b07bf0cd0d721a51a791280
p5089
sVRemarkPYQuanPin
p5090
g44
sVDisplayName
p5091
g44
sVKeyWord
p5092
g44
sVPYInitial
p5093
g44
sVUin
p5094
I0
sVMemberStatus
p5095
I0
sVPYQuanPin
p5096
g44
sVRemarkPYInitial
p5097
g44
sVNickName
p5098
V\u5c0f\u7fc0
p5099
sVAttrStatus
p5100
I4133
sa(dp5101
VUserName
p5102
V@88466148ffc22b9640c888a4d2e18912469e3430783e0b00ded08b5c0268b41e
p5103
sVRemarkPYQuanPin
p5104
g44
sVDisplayName
p5105
g44
sVKeyWord
p5106
g44
sVPYInitial
p5107
g44
sVUin
p5108
I0
sVMemberStatus
p5109
I0
sVPYQuanPin
p5110
g44
sVRemarkPYInitial
p5111
g44
sVNickName
p5112
V\u4e58\u98ce\u7834\u6d6a
p5113
sVAttrStatus
p5114
I69733
sa(dp5115
VUserName
p5116
V@f3fd03f7b8b78f0bb6353de49ebd27235e17c4ebf00bddff0431f9dbb755a6d7
p5117
sVRemarkPYQuanPin
p5118
g44
sVDisplayName
p5119
g44
sVKeyWord
p5120
g44
sVPYInitial
p5121
g44
sVUin
p5122
I0
sVMemberStatus
p5123
I0
sVPYQuanPin
p5124
g44
sVRemarkPYInitial
p5125
g44
sVNickName
p5126
V\u8096\u7fbd\u7fc0
p5127
sVAttrStatus
p5128
I6177
sa(dp5129
VUserName
p5130
V@3a90b1e487b52fee0d7ebbbf3bf2db0a31729027f8516da80d113291b91865de
p5131
sVRemarkPYQuanPin
p5132
g44
sVDisplayName
p5133
g44
sVKeyWord
p5134
g44
sVPYInitial
p5135
g44
sVUin
p5136
I0
sVMemberStatus
p5137
I0
sVPYQuanPin
p5138
g44
sVRemarkPYInitial
p5139
g44
sVNickName
p5140
VDevil   or   Angel    \u598d
p5141
sVAttrStatus
p5142
I102437
sag4959
asVPYQuanPin
p5143
Vjiaren
p5144
sVRemarkPYInitial
p5145
g44
sVSex
p5146
I0
sVAppAccountFlag
p5147
I0
sVVerifyFlag
p5148
I0
sVProvince
p5149
g44
sVKeyWord
p5150
g44
sVRemarkName
p5151
g44
sVPYInitial
p5152
VJR
p5153
sVIsOwner
p5154
I0
sVChatRoomId
p5155
I0
sVContactType
p5156
I0
sVHideInputBarFlag
p5157
I0
sVEncryChatRoomId
p5158
g44
sVAttrStatus
p5159
I0
sVSnsFlag
p5160
I0
sVMemberCount
p5161
I13
sVOwnerUin
p5162
I0
sVAlias
p5163
g44
sVSignature
p5164
g44
sVContactFlag
p5165
I3
sVNickName
p5166
V\u5bb6\u4eba
p5167
sVChatRoomOwner
p5168
V@81f9a8d30bd2aada27aa90ba3a26dcc49555e917f810664dce191a514df96b3a
p5169
sVRemarkPYQuanPin
p5170
g44
sVHeadImgUrl
p5171
V/cgi-bin/mmwebwx-bin/webwxgetheadimg?seq=0&username=@@310d1649439dd73c27510349e5e04a777b184630d400d56d7c235e2251cd7e3e&skey=@crypt_c4463405_f828997f90577ab38fb847ff6f45f664
p5172
sVUin
p5173
I0
sVStarFriend
p5174
I0
sVHeadImgUpdateFlag
p5175
I1
sVStatues
p5176
I0
sg4752
NsasS'nickName'
p5177
g67
sS'mpList'
p5178
(lp5179
(dp5180
VUserName
p5181
V@a2eb09977e6511669908290d28eb16ec
p5182
sVCity
p5183
V\u671d\u9633
p5184
sVDisplayName
p5185
g44
sVUniFriend
p5186
I0
sVMemberList
p5187
(lp5188
sVPYQuanPin
p5189
VnulideLorre
p5190
sVRemarkPYInitial
p5191
g44
sVUin
p5192
I0
sVAppAccountFlag
p5193
I0
sVVerifyFlag
p5194
I24
sVProvince
p5195
V\u5317\u4eac
p5196
sVKeyWord
p5197
Vgh_
p5198
sVRemarkName
p5199
g44
sVPYInitial
p5200
VNLDLORRE
p5201
sVChatRoomId
p5202
I0
sVIsOwner
p5203
I0
sVHideInputBarFlag
p5204
I0
sVEncryChatRoomId
p5205
g44
sVAttrStatus
p5206
I0
sVSnsFlag
p5207
I0
sVMemberCount
p5208
I0
sVOwnerUin
p5209
I0
sVAlias
p5210
g44
sVSignature
p5211
V\u6f2b\u5a01DC\u5165\u95e8\u6307\u5357\uff0c\u79d1\u5e7b\u52a8\u4f5c\u7535\u5f71\u7231\u597d\u8005
p5212
sVContactFlag
p5213
I3
sVNickName
p5214
V\u52aa\u529b\u7684Lorre
p5215
sVRemarkPYQuanPin
p5216
g44
sVHeadImgUrl
p5217
V/cgi-bin/mmwebwx-bin/webwxgeticon?seq=681256914&username=@a2eb09977e6511669908290d28eb16ec&skey=@crypt_c4463405_f828997f90577ab38fb847ff6f45f664
p5218
sVSex
p5219
I0
sVStarFriend
p5220
I0
sVStatues
p5221
I0
sa(dp5222
VUserName
p5223
V@637aa423d05f5935b70c2fc9e6837afc
p5224
sVCity
p5225
V\u6df1\u5733
p5226
sVDisplayName
p5227
g44
sVUniFriend
p5228
I0
sVMemberList
p5229
(lp5230
sVPYQuanPin
p5231
Vsudaxiaoyuan
p5232
sVRemarkPYInitial
p5233
g44
sVUin
p5234
I0
sVAppAccountFlag
p5235
I0
sVVerifyFlag
p5236
I24
sVProvince
p5237
V\u5e7f\u4e1c
p5238
sVKeyWord
p5239
Vgh_
p5240
sVRemarkName
p5241
g44
sVPYInitial
p5242
VSDXY
p5243
sVChatRoomId
p5244
I0
sVIsOwner
p5245
I0
sVHideInputBarFlag
p5246
I0
sVEncryChatRoomId
p5247
g44
sVAttrStatus
p5248
I0
sVSnsFlag
p5249
I0
sVMemberCount
p5250
I0
sVOwnerUin
p5251
I0
sVAlias
p5252
g44
sVSignature
p5253
V\u63d0\u4f9b\u6821\u56ed\u6d17\u8863\u3001\u76f4\u996e\u6c34\u3001\u6dcb\u6d74\u7b49\u670d\u52a1\uff0c\u505a\u4f60\u6700\u8d34\u5fc3\u7684\u6821\u56ed\u751f\u6d3b\u5c0f\u7ba1\u5bb6\uff0c\u8fd8\u6709\u5404\u79cd\u798f\u5229\u4e0d\u5b9a\u671f\u653e\u9001\u5662\u3002
p5254
sVContactFlag
p5255
I1
sVNickName
p5256
V\u82cf\u6253\u6821\u56ed
p5257
sVRemarkPYQuanPin
p5258
g44
sVHeadImgUrl
p5259
V/cgi-bin/mmwebwx-bin/webwxgeticon?seq=681216022&username=@637aa423d05f5935b70c2fc9e6837afc&skey=@crypt_c4463405_f828997f90577ab38fb847ff6f45f664
p5260
sVSex
p5261
I0
sVStarFriend
p5262
I0
sVStatues
p5263
I0
sa(dp5264
VUserName
p5265
V@4706ad18fcc5e605994967f86d74cc73
p5266
sVCity
p5267
V\u54c8\u5c14\u6ee8
p5268
sVDisplayName
p5269
g44
sVUniFriend
p5270
I0
sVMemberList
p5271
(lp5272
sVPYQuanPin
p5273
Vhaerbinshinagangoujiutianjumuyingcheng
p5274
sVRemarkPYInitial
p5275
g44
sVUin
p5276
I0
sVAppAccountFlag
p5277
I0
sVVerifyFlag
p5278
I24
sVProvince
p5279
V\u9ed1\u9f99\u6c5f
p5280
sVKeyWord
p5281
Vgh_
p5282
sVRemarkName
p5283
g44
sVPYInitial
p5284
VHEBSNGOJTJMYC
p5285
sVChatRoomId
p5286
I0
sVIsOwner
p5287
I0
sVHideInputBarFlag
p5288
I0
sVEncryChatRoomId
p5289
g44
sVAttrStatus
p5290
I0
sVSnsFlag
p5291
I0
sVMemberCount
p5292
I0
sVOwnerUin
p5293
I0
sVAlias
p5294
g44
sVSignature
p5295
V\u5f71\u9662\u4ea7\u54c1\u4ecb\u7ecd\u4e0e\u5f71\u8baf\u4ecb\u7ecd
p5296
sVContactFlag
p5297
I3
sVNickName
p5298
V\u54c8\u5c14\u6ee8\u5e02\u5357\u5c97\u533a\u4e5d\u5929\u5de8\u5e55\u5f71\u57ce
p5299
sVRemarkPYQuanPin
p5300
g44
sVHeadImgUrl
p5301
V/cgi-bin/mmwebwx-bin/webwxgeticon?seq=681258953&username=@4706ad18fcc5e605994967f86d74cc73&skey=@crypt_c4463405_f828997f90577ab38fb847ff6f45f664
p5302
sVSex
p5303
I0
sVStarFriend
p5304
I0
sVStatues
p5305
I0
sa(dp5306
VUserName
p5307
V@802dd96de7afa92d301fdf0267b6c903
p5308
sVCity
p5309
V\u6e1d\u5317
p5310
sVDisplayName
p5311
g44
sVUniFriend
p5312
I0
sVMemberList
p5313
(lp5314
sVPYQuanPin
p5315
Vruanjiananzhuangguanjia
p5316
sVRemarkPYInitial
p5317
g44
sVUin
p5318
I0
sVAppAccountFlag
p5319
I0
sVVerifyFlag
p5320
I24
sVProvince
p5321
V\u91cd\u5e86
p5322
sVKeyWord
p5323
Vgh_
p5324
sVRemarkName
p5325
g44
sVPYInitial
p5326
VRJAZGJ
p5327
sVChatRoomId
p5328
I0
sVIsOwner
p5329
I0
sVHideInputBarFlag
p5330
I0
sVEncryChatRoomId
p5331
g44
sVAttrStatus
p5332
I0
sVSnsFlag
p5333
I0
sVMemberCount
p5334
I0
sVOwnerUin
p5335
I0
sVAlias
p5336
g44
sVSignature
p5337
V\u514d\u8d39\u53d1\u5e03\u5404\u7c7b\u8f6f\u4ef6\u5b89\u88c5\u5305\u548c\u5b89\u88c5\u6559\u7a0b\uff0c\u5e76\u63d0\u4f9b\u8f6f\u4ef6\u5b89\u88c5\u6280\u672f\u652f\u6301\u3002\u7ba1\u5bb6\u56e2\u961f\u5b98\u65b9\u7f51\u7ad9\uff1awww.gjtd666.com
p5338
sVContactFlag
p5339
I3
sVNickName
p5340
V\u8f6f\u4ef6\u5b89\u88c5\u7ba1\u5bb6
p5341
sVRemarkPYQuanPin
p5342
g44
sVHeadImgUrl
p5343
V/cgi-bin/mmwebwx-bin/webwxgeticon?seq=681289271&username=@802dd96de7afa92d301fdf0267b6c903&skey=@crypt_c4463405_f828997f90577ab38fb847ff6f45f664
p5344
sVSex
p5345
I0
sVStarFriend
p5346
I0
sVStatues
p5347
I0
sa(dp5348
VUserName
p5349
V@ede4cf60bae35d836a4ad7125cc8423b
p5350
sVCity
p5351
V\u54c8\u5c14\u6ee8
p5352
sVDisplayName
p5353
g44
sVUniFriend
p5354
I0
sVMemberList
p5355
(lp5356
sVPYQuanPin
p5357
Vheidajiaowu
p5358
sVRemarkPYInitial
p5359
g44
sVUin
p5360
I0
sVAppAccountFlag
p5361
I0
sVVerifyFlag
p5362
I24
sVProvince
p5363
V\u9ed1\u9f99\u6c5f
p5364
sVKeyWord
p5365
Vgh_
p5366
sVRemarkName
p5367
g44
sVPYInitial
p5368
VHDJW
p5369
sVChatRoomId
p5370
I0
sVIsOwner
p5371
I0
sVHideInputBarFlag
p5372
I0
sVEncryChatRoomId
p5373
g44
sVAttrStatus
p5374
I0
sVSnsFlag
p5375
I0
sVMemberCount
p5376
I0
sVOwnerUin
p5377
I0
sVAlias
p5378
g44
sVSignature
p5379
V\u201c\u9ed1\u5927\u6559\u52a1\u201d\u4e3a\u9ed1\u9f99\u6c5f\u5927\u5b66\u6559\u52a1\u5904\u5b98\u65b9\u516c\u4f17\u53f7\uff0c\u65e8\u5728\u670d\u52a1\u5168\u6821\u5e08\u751f\uff0c\u63d0\u4f9b\u6559\u5b66\u8fd0\u884c\u3001\u5b66\u4e60\u6307\u5357\u3001\u6559\u52a1\u7ba1\u7406\u7b49\u4e0e\u672c\u79d1\u6559\u5b66\u76f8\u5173\u7684\u4fe1\u606f\u63a8\u9001\u3001\u67e5\u8be2\u3001\u4e92\u52a8\u7b49\u670d\u52a1\u3002\u6253\u9020\u4e00\u4e2a\u9ed1\u5927\u4eba\u81ea\u5df1\u7684\u201c\u4e92\u8054\u7f51+\u201d\u73af\u5883\u4e0b\u7684\u201c\u5fae\u6559\u52a1\u201d\u5e73\u53f0\u3002
p5380
sVContactFlag
p5381
I3
sVNickName
p5382
V\u9ed1\u5927\u6559\u52a1
p5383
sVRemarkPYQuanPin
p5384
g44
sVHeadImgUrl
p5385
V/cgi-bin/mmwebwx-bin/webwxgeticon?seq=662647141&username=@ede4cf60bae35d836a4ad7125cc8423b&skey=@crypt_c4463405_f828997f90577ab38fb847ff6f45f664
p5386
sVSex
p5387
I0
sVStarFriend
p5388
I0
sVStatues
p5389
I0
sa(dp5390
VUserName
p5391
V@01ebf46e48cf683cec51c9e9600064fb
p5392
sVCity
p5393
V\u5f90\u5dde
p5394
sVDisplayName
p5395
g44
sVUniFriend
p5396
I0
sVMemberList
p5397
(lp5398
sVPYQuanPin
p5399
Vmaxiaobian
p5400
sVRemarkPYInitial
p5401
g44
sVUin
p5402
I0
sVAppAccountFlag
p5403
I0
sVVerifyFlag
p5404
I8
sVProvince
p5405
V\u6c5f\u82cf
p5406
sVKeyWord
p5407
Vgh_
p5408
sVRemarkName
p5409
g44
sVPYInitial
p5410
VMXB
p5411
sVChatRoomId
p5412
I0
sVIsOwner
p5413
I0
sVHideInputBarFlag
p5414
I0
sVEncryChatRoomId
p5415
g44
sVAttrStatus
p5416
I0
sVSnsFlag
p5417
I0
sVMemberCount
p5418
I0
sVOwnerUin
p5419
I0
sVAlias
p5420
g44
sVSignature
p5421
V\u7ed9\u7a0b\u5e8f\u5458\u548c\u7f16\u7a0b\u7231\u597d\u8005\u5206\u4eab\u8ba1\u7b97\u673a\u7f16\u7a0b\u7535\u5b50\u4e66\u4ee5\u53ca\u76f8\u5173\u7684\u5b66\u4e60\u8d44\u6e90
p5422
sVContactFlag
p5423
I3
sVNickName
p5424
V\u7801\u5c0f\u8fab
p5425
sVRemarkPYQuanPin
p5426
g44
sVHeadImgUrl
p5427
V/cgi-bin/mmwebwx-bin/webwxgeticon?seq=681291098&username=@01ebf46e48cf683cec51c9e9600064fb&skey=@crypt_c4463405_f828997f90577ab38fb847ff6f45f664
p5428
sVSex
p5429
I0
sVStarFriend
p5430
I0
sVStatues
p5431
I0
sa(dp5432
VUserName
p5433
V@a3f76c81626e945e9e68eaedf3137e3a
p5434
sVCity
p5435
V\u6b66\u6c49
p5436
sVDisplayName
p5437
g44
sVUniFriend
p5438
I0
sVMemberList
p5439
(lp5440
sVPYQuanPin
p5441
VPayforMoney
p5442
sVRemarkPYInitial
p5443
g44
sVUin
p5444
I0
sVAppAccountFlag
p5445
I0
sVVerifyFlag
p5446
I8
sVProvince
p5447
V\u6e56\u5317
p5448
sVKeyWord
p5449
Vgh_
p5450
sVRemarkName
p5451
g44
sVPYInitial
p5452
VPAYFORMONEY
p5453
sVChatRoomId
p5454
I0
sVIsOwner
p5455
I0
sVHideInputBarFlag
p5456
I0
sVEncryChatRoomId
p5457
g44
sVAttrStatus
p5458
I0
sVSnsFlag
p5459
I0
sVMemberCount
p5460
I0
sVOwnerUin
p5461
I0
sVAlias
p5462
g44
sVSignature
p5463
V\u5206\u4eab\u4e0e\u70ed\u7231
p5464
sVContactFlag
p5465
I3
sVNickName
p5466
VPay for Money
p5467
sVRemarkPYQuanPin
p5468
g44
sVHeadImgUrl
p5469
V/cgi-bin/mmwebwx-bin/webwxgeticon?seq=681264299&username=@a3f76c81626e945e9e68eaedf3137e3a&skey=@crypt_c4463405_f828997f90577ab38fb847ff6f45f664
p5470
sVSex
p5471
I0
sVStarFriend
p5472
I0
sVStatues
p5473
I0
sa(dp5474
VUserName
p5475
V@e7125ad751d35deaf06366f6034e5f08
p5476
sVCity
p5477
V\u6b66\u6c49
p5478
sVDisplayName
p5479
g44
sVUniFriend
p5480
I0
sVMemberList
p5481
(lp5482
sVPYQuanPin
p5483
Vbaiwen
p5484
sVRemarkPYInitial
p5485
g44
sVUin
p5486
I0
sVAppAccountFlag
p5487
I0
sVVerifyFlag
p5488
I24
sVProvince
p5489
V\u6e56\u5317
p5490
sVKeyWord
p5491
Vgh_
p5492
sVRemarkName
p5493
g44
sVPYInitial
p5494
VBW
p5495
sVChatRoomId
p5496
I0
sVIsOwner
p5497
I0
sVHideInputBarFlag
p5498
I0
sVEncryChatRoomId
p5499
g44
sVAttrStatus
p5500
I0
sVSnsFlag
p5501
I0
sVMemberCount
p5502
I0
sVOwnerUin
p5503
I0
sVAlias
p5504
g44
sVSignature
p5505
V\u4e0d\u5ba2\u89c2 \u771f\u4f53\u9a8c \u7a0d\u5e26\u4e3b\u89c2\u7684\u79d1\u6280\u77e5\u8bc6\u95ee\u7b54\u5206\u4eab
p5506
sVContactFlag
p5507
I3
sVNickName
p5508
V\u767d\u95ee
p5509
sVRemarkPYQuanPin
p5510
g44
sVHeadImgUrl
p5511
V/cgi-bin/mmwebwx-bin/webwxgeticon?seq=681312190&username=@e7125ad751d35deaf06366f6034e5f08&skey=@crypt_c4463405_f828997f90577ab38fb847ff6f45f664
p5512
sVSex
p5513
I0
sVStarFriend
p5514
I0
sVStatues
p5515
I0
sa(dp5516
VUserName
p5517
V@f833bf22cd833a81cfd13f8307cb70cd
p5518
sVCity
p5519
V\u5357\u4eac
p5520
sVDisplayName
p5521
g44
sVUniFriend
p5522
I0
sVMemberList
p5523
(lp5524
sVPYQuanPin
p5525
VCodeSheep
p5526
sVRemarkPYInitial
p5527
g44
sVUin
p5528
I0
sVAppAccountFlag
p5529
I0
sVVerifyFlag
p5530
I8
sVProvince
p5531
V\u6c5f\u82cf
p5532
sVKeyWord
p5533
Vgh_
p5534
sVRemarkName
p5535
g44
sVPYInitial
p5536
VCODESHEEP
p5537
sVChatRoomId
p5538
I0
sVIsOwner
p5539
I0
sVHideInputBarFlag
p5540
I0
sVEncryChatRoomId
p5541
g44
sVAttrStatus
p5542
I0
sVSnsFlag
p5543
I0
sVMemberCount
p5544
I0
sVOwnerUin
p5545
I0
sVAlias
p5546
g44
sVSignature
p5547
V\u4e00\u53ea\u7231\u6280\u672f\u7684\u7a0b\u5e8f\u7f8a\uff0c\u60f3\u628a\u5206\u4eab\u53d8\u6210\u4e00\u79cd\u4e60\u60ef\uff01
p5548
sVContactFlag
p5549
I3
sVNickName
p5550
VCodeSheep
p5551
sVRemarkPYQuanPin
p5552
g44
sVHeadImgUrl
p5553
V/cgi-bin/mmwebwx-bin/webwxgeticon?seq=681318844&username=@f833bf22cd833a81cfd13f8307cb70cd&skey=@crypt_c4463405_f828997f90577ab38fb847ff6f45f664
p5554
sVSex
p5555
I0
sVStarFriend
p5556
I0
sVStatues
p5557
I0
sa(dp5558
VUserName
p5559
V@e4826c91e2f3807bb397080c62f5af93
p5560
sVCity
p5561
V\u6d66\u4e1c\u65b0\u533a
p5562
sVDisplayName
p5563
g44
sVUniFriend
p5564
I0
sVMemberList
p5565
(lp5566
sVPYQuanPin
p5567
VLeetCodelikou
p5568
sVRemarkPYInitial
p5569
g44
sVUin
p5570
I0
sVAppAccountFlag
p5571
I0
sVVerifyFlag
p5572
I24
sVProvince
p5573
V\u4e0a\u6d77
p5574
sVKeyWord
p5575
Vgh_
p5576
sVRemarkName
p5577
g44
sVPYInitial
p5578
VLEETCODELK
p5579
sVChatRoomId
p5580
I0
sVIsOwner
p5581
I0
sVHideInputBarFlag
p5582
I0
sVEncryChatRoomId
p5583
g44
sVAttrStatus
p5584
I0
sVSnsFlag
p5585
I0
sVMemberCount
p5586
I0
sVOwnerUin
p5587
I0
sVAlias
p5588
g44
sVSignature
p5589
V\u638c\u63e1\u79d1\u6280\u884c\u4e1a\u70ed\u70b9\u52a8\u5411\uff0c\u4e30\u5bcc\u7684\u5728\u7ebf\u6280\u672f\u8d44\u6e90\uff0c\u5e2e\u52a9\u5b66\u4e60\u548c\u63d0\u5347\u4e13\u4e1a\u6280\u672f\u6c34\u5e73\u3002
p5590
sVContactFlag
p5591
I1
sVNickName
p5592
VLeetCode\u529b\u6263
p5593
sVRemarkPYQuanPin
p5594
g44
sVHeadImgUrl
p5595
V/cgi-bin/mmwebwx-bin/webwxgeticon?seq=681204440&username=@e4826c91e2f3807bb397080c62f5af93&skey=@crypt_c4463405_f828997f90577ab38fb847ff6f45f664
p5596
sVSex
p5597
I0
sVStarFriend
p5598
I0
sVStatues
p5599
I0
sa(dp5600
VUserName
p5601
V@71b9715bc660e00e0585c4997cdde82f
p5602
sVCity
p5603
V\u5e7f\u5dde
p5604
sVDisplayName
p5605
g44
sVUniFriend
p5606
I0
sVMemberList
p5607
(lp5608
sVPYQuanPin
p5609
VshuanggePower
p5610
sVRemarkPYInitial
p5611
g44
sVUin
p5612
I0
sVAppAccountFlag
p5613
I0
sVVerifyFlag
p5614
I24
sVProvince
p5615
V\u5e7f\u4e1c
p5616
sVKeyWord
p5617
Vgh_
p5618
sVRemarkName
p5619
g44
sVPYInitial
p5620
VSGPOWER
p5621
sVChatRoomId
p5622
I0
sVIsOwner
p5623
I0
sVHideInputBarFlag
p5624
I0
sVEncryChatRoomId
p5625
g44
sVAttrStatus
p5626
I0
sVSnsFlag
p5627
I0
sVMemberCount
p5628
I0
sVOwnerUin
p5629
I0
sVAlias
p5630
g44
sVSignature
p5631
V\u723d\u54e5\uff0c\u4e00\u4e2a\u8bfb\u4e86\u7269\u6d41\u7ba1\u7406\uff0c\u6bd5\u4e1a\u5f53\u4e86\u91d1\u878d\u6c11\u5de5\uff0c\u6700\u540e\u6210\u4e86\u65b0\u5a92\u4f53\u521b\u4e1a\u516c\u53f8CEO\u7684\u6587\u79d1\u7537\uff0c\u6301\u7eed\u7684\u7cbe\u8fdb\u4e3b\u4e49\u8005
p5632
sVContactFlag
p5633
I3
sVNickName
p5634
V\u723d\u54e5Power
p5635
sVRemarkPYQuanPin
p5636
g44
sVHeadImgUrl
p5637
V/cgi-bin/mmwebwx-bin/webwxgeticon?seq=681325474&username=@71b9715bc660e00e0585c4997cdde82f&skey=@crypt_c4463405_f828997f90577ab38fb847ff6f45f664
p5638
sVSex
p5639
I0
sVStarFriend
p5640
I0
sVStatues
p5641
I0
sa(dp5642
VUserName
p5643
V@57d858b1471bff2dd2a3a2faa7928361
p5644
sVCity
p5645
V\u54c8\u5c14\u6ee8
p5646
sVDisplayName
p5647
g44
sVUniFriend
p5648
I0
sVMemberList
p5649
(lp5650
sVPYQuanPin
p5651
Vheilongjiangdaxuetushuguanfuwuhao
p5652
sVRemarkPYInitial
p5653
g44
sVUin
p5654
I0
sVAppAccountFlag
p5655
I0
sVVerifyFlag
p5656
I24
sVProvince
p5657
V\u9ed1\u9f99\u6c5f
p5658
sVKeyWord
p5659
Vgh_
p5660
sVRemarkName
p5661
g44
sVPYInitial
p5662
VHLJDXTSGFWH
p5663
sVChatRoomId
p5664
I0
sVIsOwner
p5665
I0
sVHideInputBarFlag
p5666
I0
sVEncryChatRoomId
p5667
g44
sVAttrStatus
p5668
I0
sVSnsFlag
p5669
I0
sVMemberCount
p5670
I0
sVOwnerUin
p5671
I0
sVAlias
p5672
g44
sVSignature
p5673
V\u53d1\u5e03\u56fe\u4e66\u9986\u516c\u5171\u4fe1\u606f\uff0c\u6700\u65b0\u8d44\u8baf\uff0c\u63d0\u4f9b\u56fe\u4e66\u8d85\u671f\u63d0\u9192\u3001\u50ac\u8fd8\u548c\u9884\u7ea6\u5230\u4e66\u63d0\u9192\u7b49\u3002
p5674
sVContactFlag
p5675
I1
sVNickName
p5676
V\u9ed1\u9f99\u6c5f\u5927\u5b66\u56fe\u4e66\u9986\u670d\u52a1\u53f7
p5677
sVRemarkPYQuanPin
p5678
g44
sVHeadImgUrl
p5679
V/cgi-bin/mmwebwx-bin/webwxgeticon?seq=681217853&username=@57d858b1471bff2dd2a3a2faa7928361&skey=@crypt_c4463405_f828997f90577ab38fb847ff6f45f664
p5680
sVSex
p5681
I0
sVStarFriend
p5682
I0
sVStatues
p5683
I0
sa(dp5684
VUserName
p5685
V@730b464a6bce1db3ffce6c3b97919d0c
p5686
sVCity
p5687
V\u54c8\u5c14\u6ee8
p5688
sVDisplayName
p5689
g44
sVUniFriend
p5690
I0
sVMemberList
p5691
(lp5692
sVPYQuanPin
p5693
Vhaerbinaimeiguojijumuyingcheng
p5694
sVRemarkPYInitial
p5695
g44
sVUin
p5696
I0
sVAppAccountFlag
p5697
I0
sVVerifyFlag
p5698
I24
sVProvince
p5699
V\u9ed1\u9f99\u6c5f
p5700
sVKeyWord
p5701
Vgh_
p5702
sVRemarkName
p5703
g44
sVPYInitial
p5704
VHEBAMGJJMYC
p5705
sVChatRoomId
p5706
I0
sVIsOwner
p5707
I0
sVHideInputBarFlag
p5708
I0
sVEncryChatRoomId
p5709
g44
sVAttrStatus
p5710
I0
sVSnsFlag
p5711
I0
sVMemberCount
p5712
I0
sVOwnerUin
p5713
I0
sVAlias
p5714
g44
sVSignature
p5715
V\u4f01\u4e1a\u4ecb\u7ecd\uff0c\u5f71\u7247\u4ecb\u7ecd\uff0c\u6d3b\u52a8
p5716
sVContactFlag
p5717
I1
sVNickName
p5718
V\u54c8\u5c14\u6ee8\u827e\u7f8e\u56fd\u9645\u5de8\u5e55\u5f71\u57ce
p5719
sVRemarkPYQuanPin
p5720
g44
sVHeadImgUrl
p5721
V/cgi-bin/mmwebwx-bin/webwxgeticon?seq=681260089&username=@730b464a6bce1db3ffce6c3b97919d0c&skey=@crypt_c4463405_f828997f90577ab38fb847ff6f45f664
p5722
sVSex
p5723
I0
sVStarFriend
p5724
I0
sVStatues
p5725
I0
sa(dp5726
VUserName
p5727
V@b64e156cf1bb485f38f73f1d1e141396
p5728
sVCity
p5729
V\u5e7f\u5dde
p5730
sVDisplayName
p5731
g44
sVUniFriend
p5732
I0
sVMemberList
p5733
(lp5734
sVPYQuanPin
p5735
Vdafeimazi
p5736
sVRemarkPYInitial
p5737
g44
sVUin
p5738
I0
sVAppAccountFlag
p5739
I0
sVVerifyFlag
p5740
I8
sVProvince
p5741
V\u5e7f\u4e1c
p5742
sVKeyWord
p5743
Vgh_
p5744
sVRemarkName
p5745
g44
sVPYInitial
p5746
VDFMZ
p5747
sVChatRoomId
p5748
I0
sVIsOwner
p5749
I0
sVHideInputBarFlag
p5750
I0
sVEncryChatRoomId
p5751
g44
sVAttrStatus
p5752
I0
sVSnsFlag
p5753
I0
sVMemberCount
p5754
I0
sVOwnerUin
p5755
I0
sVAlias
p5756
g44
sVSignature
p5757
V\u5728\u56fd\u5185\u77e5\u540d\u4e92\u8054\u7f51\u516c\u53f8\u5de5\u4f5c\u5feb\u5341\u5e74\u4e86\uff0c\u5e73\u65f6\u559c\u6b22\u601d\u8003\u4e00\u4e9b\u4e8b\u60c5\uff0c\u6240\u4ee5\u5f00\u4e2a\u516c\u4f17\u53f7\u8ddf\u5927\u5bb6\u5206\u4eab\u4e00\u4e9b\u60f3\u6cd5\u3002
p5758
sVContactFlag
p5759
I3
sVNickName
p5760
V\u5927\u98de\u7801\u5b57
p5761
sVRemarkPYQuanPin
p5762
g44
sVHeadImgUrl
p5763
V/cgi-bin/mmwebwx-bin/webwxgeticon?seq=708766901&username=@b64e156cf1bb485f38f73f1d1e141396&skey=@crypt_c4463405_f828997f90577ab38fb847ff6f45f664
p5764
sVSex
p5765
I0
sVStarFriend
p5766
I0
sVStatues
p5767
I0
sa(dp5768
VUserName
p5769
V@9116192a8115b0d1ff4fc2bd05bdb302
p5770
sVCity
p5771
V\u6d66\u4e1c\u65b0\u533a
p5772
sVDisplayName
p5773
g44
sVUniFriend
p5774
I0
sVMemberList
p5775
(lp5776
sVPYQuanPin
p5777
VPythonaihaozhesheou
p5778
sVRemarkPYInitial
p5779
g44
sVUin
p5780
I0
sVAppAccountFlag
p5781
I0
sVVerifyFlag
p5782
I8
sVProvince
p5783
V\u4e0a\u6d77
p5784
sVKeyWord
p5785
Vgh_
p5786
sVRemarkName
p5787
g44
sVPYInitial
p5788
VPYTHONAHZSO
p5789
sVChatRoomId
p5790
I0
sVIsOwner
p5791
I0
sVHideInputBarFlag
p5792
I0
sVEncryChatRoomId
p5793
g44
sVAttrStatus
p5794
I0
sVSnsFlag
p5795
I0
sVMemberCount
p5796
I0
sVOwnerUin
p5797
I0
sVAlias
p5798
g44
sVSignature
p5799
V\u4eba\u751f\u82e6\u77ed\uff0c\u6211\u7528Python\u3002\u5206\u4eabPython\u76f8\u5173\u7684\u6280\u672f\u6587\u7ae0\u3001\u5de5\u5177\u8d44\u6e90\u3001\u7cbe\u9009\u8bfe\u7a0b\u3001\u89c6\u9891\u6559\u7a0b\u3001\u70ed\u70b9\u8d44\u8baf\u3001\u5b66\u4e60\u8d44\u6599\u7b49\u3002\u6bcf\u5929\u81ea\u52a8\u66f4\u65b0\u548c\u63a8\u9001\u3002
p5800
sVContactFlag
p5801
I3
sVNickName
p5802
VPython\u7231\u597d\u8005\u793e\u533a
p5803
sVRemarkPYQuanPin
p5804
g44
sVHeadImgUrl
p5805
V/cgi-bin/mmwebwx-bin/webwxgeticon?seq=708766905&username=@9116192a8115b0d1ff4fc2bd05bdb302&skey=@crypt_c4463405_f828997f90577ab38fb847ff6f45f664
p5806
sVSex
p5807
I0
sVStarFriend
p5808
I0
sVStatues
p5809
I0
sa(dp5810
VUserName
p5811
V@34034cb9a82778ccc5688a45680d8bd8
p5812
sVCity
p5813
V\u6210\u90fd
p5814
sVDisplayName
p5815
g44
sVUniFriend
p5816
I0
sVMemberList
p5817
(lp5818
sVPYQuanPin
p5819
Vxiaolongkanlaohuoguo
p5820
sVRemarkPYInitial
p5821
g44
sVUin
p5822
I0
sVAppAccountFlag
p5823
I0
sVVerifyFlag
p5824
I24
sVProvince
p5825
V\u56db\u5ddd
p5826
sVKeyWord
p5827
Vgh_
p5828
sVRemarkName
p5829
g44
sVPYInitial
p5830
VXLKLHG
p5831
sVChatRoomId
p5832
I0
sVIsOwner
p5833
I0
sVHideInputBarFlag
p5834
I0
sVEncryChatRoomId
p5835
g44
sVAttrStatus
p5836
I0
sVSnsFlag
p5837
I0
sVMemberCount
p5838
I0
sVOwnerUin
p5839
I0
sVAlias
p5840
g44
sVSignature
p5841
V\u5173\u6ce8\u5c0f\u9f99\u574e\u8001\u706b\u9505\u5b98\u65b9\u516c\u4f17\u53f7\uff0c\u83b7\u53d6\u5e97\u9762\u6700\u65b0\u4f18\u60e0\u6d3b\u52a8\u3001\u5373\u65f6\u6392\u53f7\u8fdb\u7a0b\u3001\u514d\u8d39wifi\u3001\u95e8\u5e97\u5bfc\u822a\u3001\u8ba2\u9910\u7535\u8bdd\u7b49\u4fe1\u606f\u3002
p5842
sVContactFlag
p5843
I1
sVNickName
p5844
V\u5c0f\u9f99\u574e\u8001\u706b\u9505
p5845
sVRemarkPYQuanPin
p5846
g44
sVHeadImgUrl
p5847
V/cgi-bin/mmwebwx-bin/webwxgeticon?seq=681257116&username=@34034cb9a82778ccc5688a45680d8bd8&skey=@crypt_c4463405_f828997f90577ab38fb847ff6f45f664
p5848
sVSex
p5849
I0
sVStarFriend
p5850
I0
sVStatues
p5851
I0
sa(dp5852
VUserName
p5853
V@a6c35ab282403e5372eadfae29567f19
p5854
sVCity
p5855
V\u6b66\u6c49
p5856
sVDisplayName
p5857
g44
sVUniFriend
p5858
I0
sVMemberList
p5859
(lp5860
sVPYQuanPin
p5861
Vhubeiliantong
p5862
sVRemarkPYInitial
p5863
g44
sVUin
p5864
I0
sVAppAccountFlag
p5865
I0
sVVerifyFlag
p5866
I24
sVProvince
p5867
V\u6e56\u5317
p5868
sVKeyWord
p5869
Vgh_
p5870
sVRemarkName
p5871
g44
sVPYInitial
p5872
VHBLT
p5873
sVChatRoomId
p5874
I0
sVIsOwner
p5875
I0
sVHideInputBarFlag
p5876
I0
sVEncryChatRoomId
p5877
g44
sVAttrStatus
p5878
I0
sVSnsFlag
p5879
I0
sVMemberCount
p5880
I0
sVOwnerUin
p5881
I0
sVAlias
p5882
g44
sVSignature
p5883
V\u63d0\u4f9b\u968f\u8eab\u670d\u52a1\uff0c\u65b9\u4fbf\u60a8\u67e5\u8be2\u8bdd\u8d39\u3001\u529e\u7406\u4e1a\u52a1\u3001\u4ea4\u8d39\u5145\u503c\u3001\u53c2\u52a0\u6d3b\u52a8\u3002
p5884
sVContactFlag
p5885
I1
sVNickName
p5886
V\u6e56\u5317\u8054\u901a
p5887
sVRemarkPYQuanPin
p5888
g44
sVHeadImgUrl
p5889
V/cgi-bin/mmwebwx-bin/webwxgeticon?seq=662627437&username=@a6c35ab282403e5372eadfae29567f19&skey=@crypt_c4463405_f828997f90577ab38fb847ff6f45f664
p5890
sVSex
p5891
I0
sVStarFriend
p5892
I0
sVStatues
p5893
I0
sa(dp5894
VUserName
p5895
V@57adac5b7aa39383f677f3f3a28e21d3
p5896
sVCity
p5897
V\u6df1\u5733
p5898
sVDisplayName
p5899
g44
sVUniFriend
p5900
I0
sVMemberList
p5901
(lp5902
sVPYQuanPin
p5903
Vwangkazhushou
p5904
sVRemarkPYInitial
p5905
g44
sVUin
p5906
I0
sVAppAccountFlag
p5907
I0
sVVerifyFlag
p5908
I24
sVProvince
p5909
V\u5e7f\u4e1c
p5910
sVKeyWord
p5911
Vgh_
p5912
sVRemarkName
p5913
g44
sVPYInitial
p5914
VWKZS
p5915
sVChatRoomId
p5916
I0
sVIsOwner
p5917
I0
sVHideInputBarFlag
p5918
I0
sVEncryChatRoomId
p5919
g44
sVAttrStatus
p5920
I0
sVSnsFlag
p5921
I0
sVMemberCount
p5922
I0
sVOwnerUin
p5923
I0
sVAlias
p5924
g44
sVSignature
p5925
V\u201c\u817e\u8baf\u738b\u5361\u201d\u4e3a\u8054\u901a\u4e0e\u817e\u8baf\u5408\u4f5c\u7684\u5b9a\u5236\u5316\u53f7\u5361\u4ea7\u54c1\uff0c\u8d85100\u6b3eAPP\u5e94\u7528\u4e13\u5c5e\u514d\u6d41\u91cf\u4e0d\u9650\u901f\uff0c\u56db\u5927\u6743\u76ca\u8ba9\u60a8\u5c0a\u4eab\u4f18\u60e0\uff0c\u8d70\u904d\u5168\u56fd\u4e0d\u6362\u53f7\uff01\u66f4\u591a\u60ca\u559c\u5c3d\u5728\u201c\u738b\u5361\u52a9\u624b\u201d\uff0c\u671f\u5f85\u4e0e\u60a8\u4e00\u8def\u540c\u884c\uff01
p5926
sVContactFlag
p5927
I1
sVNickName
p5928
V\u738b\u5361\u52a9\u624b
p5929
sVRemarkPYQuanPin
p5930
g44
sVHeadImgUrl
p5931
V/cgi-bin/mmwebwx-bin/webwxgeticon?seq=662627296&username=@57adac5b7aa39383f677f3f3a28e21d3&skey=@crypt_c4463405_f828997f90577ab38fb847ff6f45f664
p5932
sVSex
p5933
I0
sVStarFriend
p5934
I0
sVStatues
p5935
I0
sa(dp5936
VUserName
p5937
V@ef0ef7701c3bab2f936f6c83487c0e3d
p5938
sVCity
p5939
V\u957f\u5b81
p5940
sVDisplayName
p5941
g44
sVUniFriend
p5942
I0
sVMemberList
p5943
(lp5944
sVPYQuanPin
p5945
Vduoduojinbao
p5946
sVRemarkPYInitial
p5947
g44
sVUin
p5948
I0
sVAppAccountFlag
p5949
I0
sVVerifyFlag
p5950
I24
sVProvince
p5951
V\u4e0a\u6d77
p5952
sVKeyWord
p5953
Vgh_
p5954
sVRemarkName
p5955
g44
sVPYInitial
p5956
VDDJB
p5957
sVChatRoomId
p5958
I0
sVIsOwner
p5959
I0
sVHideInputBarFlag
p5960
I0
sVEncryChatRoomId
p5961
g44
sVAttrStatus
p5962
I0
sVSnsFlag
p5963
I0
sVMemberCount
p5964
I0
sVOwnerUin
p5965
I0
sVAlias
p5966
g44
sVSignature
p5967
V\u62fc\u591a\u591a\u5b98\u65b9\u8d2d\u7269\u8fd4\u73b0\u5e73\u53f0\uff0c\u6bcf\u65e5\u53d1\u653e\u5185\u90e8\u4f18\u60e0\u5238\u3002\u5206\u4eab\u8d5a\u94b1\uff0c\u81ea\u8d2d\u7701\u94b1\uff0c\u5168\u90e8\u53ef\u63d0\u73b0\u91d1\uff01
p5968
sVContactFlag
p5969
I1
sVNickName
p5970
V\u591a\u591a\u8fdb\u5b9d
p5971
sVRemarkPYQuanPin
p5972
g44
sVHeadImgUrl
p5973
V/cgi-bin/mmwebwx-bin/webwxgeticon?seq=708768370&username=@ef0ef7701c3bab2f936f6c83487c0e3d&skey=@crypt_c4463405_f828997f90577ab38fb847ff6f45f664
p5974
sVSex
p5975
I0
sVStarFriend
p5976
I0
sVStatues
p5977
I0
sa(dp5978
VUserName
p5979
V@27036851f4eddb6b5582f309c128fcc5
p5980
sVCity
p5981
V\u6df1\u5733
p5982
sVDisplayName
p5983
g44
sVUniFriend
p5984
I0
sVMemberList
p5985
(lp5986
sVPYQuanPin
p5987
Vshunfengsuyun
p5988
sVRemarkPYInitial
p5989
g44
sVUin
p5990
I0
sVAppAccountFlag
p5991
I0
sVVerifyFlag
p5992
I24
sVProvince
p5993
V\u5e7f\u4e1c
p5994
sVKeyWord
p5995
Vgh_
p5996
sVRemarkName
p5997
g44
sVPYInitial
p5998
VSFSY
p5999
sVChatRoomId
p6000
I0
sVIsOwner
p6001
I0
sVHideInputBarFlag
p6002
I0
sVEncryChatRoomId
p6003
g44
sVAttrStatus
p6004
I0
sVSnsFlag
p6005
I0
sVMemberCount
p6006
I0
sVOwnerUin
p6007
I0
sVAlias
p6008
g44
sVSignature
p6009
V\u5feb\u4ef6\u4fe1\u606f\u5b9e\u65f6\u6536\uff0c\u4f1a\u5458\u6743\u76ca\u7b49\u4f60\u62ff\u3002\u987a\u4e30\u901f\u8fd0\u51fa\u54c1\uff0c\u4e00\u6b3e\u63d0\u4f9b\u5728\u7ebf\u5bc4\u4ef6\u3001\u4e00\u5c0f\u65f6\u4e0a\u95e8\u3001\u5feb\u9012\u5355\u53f7\u67e5\u8be2\u3001\u7f51\u70b9\u67e5\u8be2\u3001\u8fd0\u8d39\u67e5\u8be2\u7b49\u76f8\u5173\u670d\u52a1\u7684\u5feb\u9012\u7269\u6d41\u516c\u4f17\u53f7\u3002\u67e5\u5feb\u9012\u3001\u5bc4\u5feb\u9012\u7528\u987a\u4e30\uff0c\u4e0d\u6b62\u662f\u5feb\u3002
p6010
sVContactFlag
p6011
I1
sVNickName
p6012
V\u987a\u4e30\u901f\u8fd0
p6013
sVRemarkPYQuanPin
p6014
g44
sVHeadImgUrl
p6015
V/cgi-bin/mmwebwx-bin/webwxgeticon?seq=681294407&username=@27036851f4eddb6b5582f309c128fcc5&skey=@crypt_c4463405_f828997f90577ab38fb847ff6f45f664
p6016
sVSex
p6017
I0
sVStarFriend
p6018
I0
sVStatues
p6019
I0
sa(dp6020
VUserName
p6021
V@36dbfe74dece9bdabe28341c032b39f8
p6022
sVCity
p6023
V\u957f\u5b81
p6024
sVDisplayName
p6025
g44
sVUniFriend
p6026
I0
sVMemberList
p6027
(lp6028
sVPYQuanPin
p6029
VjingdongPLUShuiyuan
p6030
sVRemarkPYInitial
p6031
g44
sVUin
p6032
I0
sVAppAccountFlag
p6033
I0
sVVerifyFlag
p6034
I24
sVProvince
p6035
V\u4e0a\u6d77
p6036
sVKeyWord
p6037
Vgh_
p6038
sVRemarkName
p6039
g44
sVPYInitial
p6040
VJDPLUSHY
p6041
sVChatRoomId
p6042
I0
sVIsOwner
p6043
I0
sVHideInputBarFlag
p6044
I0
sVEncryChatRoomId
p6045
g44
sVAttrStatus
p6046
I0
sVSnsFlag
p6047
I0
sVMemberCount
p6048
I0
sVOwnerUin
p6049
I0
sVAlias
p6050
g44
sVSignature
p6051
V\u4eac\u4e1c\u4e3a\u5411\u6838\u5fc3\u5ba2\u6237\u63d0\u4f9b\u66f4\u4f18\u8d28\u7684\u8d2d\u7269\u4f53\u9a8c\uff0c\u7279\u522b\u63a8\u51fa\u4eac\u4e1cPLUS\u4f1a\u5458\uff0cPLUS\u6743\u76ca\u5305\u542b\u8d2d\u7269\u56de\u9988\u3001\u81ea\u8425\u514d\u8fd0\u8d39\u3001\u7231\u5947\u827a\u5e74\u5361\u4f1a\u5458\u3001\u77e5\u4e4e\u8bfb\u4e66\u5e74\u5361\u4f1a\u5458\u3001\u4e13\u4eab\u4ef7\u5546\u54c1\u7b49\u5341\u4e00\u5927\u7279\u6743\uff0c\u6211\u4eec\u5c06\u4e0d\u65ad\u4e30\u5bccPLUS\u7684\u4f1a\u5458\u6743\u76ca\uff0c\u4e3a\u60a8\u63d0\u4f9b\u66f4\u5b8c\u5584\u7684\u670d\u52a1\u3002
p6052
sVContactFlag
p6053
I1
sVNickName
p6054
V\u4eac\u4e1cPLUS\u4f1a\u5458
p6055
sVRemarkPYQuanPin
p6056
g44
sVHeadImgUrl
p6057
V/cgi-bin/mmwebwx-bin/webwxgeticon?seq=681319520&username=@36dbfe74dece9bdabe28341c032b39f8&skey=@crypt_c4463405_f828997f90577ab38fb847ff6f45f664
p6058
sVSex
p6059
I0
sVStarFriend
p6060
I0
sVStatues
p6061
I0
sa(dp6062
VUserName
p6063
V@ee0a1357d79a7883faf1b8c0d0ce4ee8
p6064
sVCity
p6065
g44
sVDisplayName
p6066
g44
sVUniFriend
p6067
I0
sVMemberList
p6068
(lp6069
sVPYQuanPin
p6070
VHMguanfang
p6071
sVRemarkPYInitial
p6072
g44
sVUin
p6073
I0
sVAppAccountFlag
p6074
I0
sVVerifyFlag
p6075
I24
sVProvince
p6076
V\u4e0a\u6d77
p6077
sVKeyWord
p6078
Vgh_
p6079
sVRemarkName
p6080
g44
sVPYInitial
p6081
VHMGF
p6082
sVChatRoomId
p6083
I0
sVIsOwner
p6084
I0
sVHideInputBarFlag
p6085
I0
sVEncryChatRoomId
p6086
g44
sVAttrStatus
p6087
I0
sVSnsFlag
p6088
I0
sVMemberCount
p6089
I0
sVOwnerUin
p6090
I0
sVAlias
p6091
g44
sVSignature
p6092
V\u79c9\u627f\u201c\u4ee5\u4f18\u60e0\u7684\u4ef7\u683c\u63d0\u4f9b\u65f6\u5c1a\u548c\u54c1\u8d28\u201d\u7684\u7ecf\u8425\u7406\u5ff5\uff0c\u56fd\u9645\u65f6\u88c5\u54c1\u724cH&amp;M\u4e3a\u60a8\u5e26\u6765\u5168\u65b0\u7684\u65f6\u5c1a\u4f53\u9a8c\u3002\u968f\u65f6\u638c\u63e1\u65b0\u9c9c\u65f6\u5c1a\u8d44\u8baf\uff0c\u4eab\u53d7\u66f4\u591a\u4e92\u52a8\u4f53\u9a8c\uff0c\u5173\u6ce8\u6211\u4eec\uff0c\u5373\u523b\u5f00\u542f\uff01
p6093
sVContactFlag
p6094
I1
sVNickName
p6095
VHM\u5b98\u65b9
p6096
sVRemarkPYQuanPin
p6097
g44
sVHeadImgUrl
p6098
V/cgi-bin/mmwebwx-bin/webwxgeticon?seq=662644115&username=@ee0a1357d79a7883faf1b8c0d0ce4ee8&skey=@crypt_c4463405_f828997f90577ab38fb847ff6f45f664
p6099
sVSex
p6100
I0
sVStarFriend
p6101
I0
sVStatues
p6102
I0
sa(dp6103
VUserName
p6104
V@d5199c84bb6f1111c5e000713868c986
p6105
sVCity
p6106
V\u5f90\u6c47
p6107
sVDisplayName
p6108
g44
sVUniFriend
p6109
I0
sVMemberList
p6110
(lp6111
sVPYQuanPin
p6112
Vyouyiku
p6113
sVRemarkPYInitial
p6114
g44
sVUin
p6115
I0
sVAppAccountFlag
p6116
I0
sVVerifyFlag
p6117
I28
sVProvince
p6118
V\u4e0a\u6d77
p6119
sVKeyWord
p6120
Vyou
p6121
sVRemarkName
p6122
g44
sVPYInitial
p6123
VYYK
p6124
sVChatRoomId
p6125
I0
sVIsOwner
p6126
I0
sVHideInputBarFlag
p6127
I0
sVEncryChatRoomId
p6128
g44
sVAttrStatus
p6129
I3
sVSnsFlag
p6130
I0
sVMemberCount
p6131
I0
sVOwnerUin
p6132
I0
sVAlias
p6133
g44
sVSignature
p6134
V\u4f18\u8863\u5e93\u54c1\u724c\u5b98\u65b9\u5fae\u4fe1
p6135
sVContactFlag
p6136
I1
sVNickName
p6137
V\u4f18\u8863\u5e93
p6138
sVRemarkPYQuanPin
p6139
g44
sVHeadImgUrl
p6140
V/cgi-bin/mmwebwx-bin/webwxgeticon?seq=681275289&username=@d5199c84bb6f1111c5e000713868c986&skey=@crypt_c4463405_f828997f90577ab38fb847ff6f45f664
p6141
sVSex
p6142
I0
sVStarFriend
p6143
I0
sVStatues
p6144
I0
sa(dp6145
VUserName
p6146
V@48ee1e017c000bfa8a96ee26093c2924
p6147
sVCity
p6148
g44
sVDisplayName
p6149
g44
sVUniFriend
p6150
I0
sVMemberList
p6151
(lp6152
sVPYQuanPin
p6153
VTower
p6154
sVRemarkPYInitial
p6155
g44
sVUin
p6156
I0
sVAppAccountFlag
p6157
I0
sVVerifyFlag
p6158
I24
sVProvince
p6159
V\u56db\u5ddd
p6160
sVKeyWord
p6161
Vgh_
p6162
sVRemarkName
p6163
g44
sVPYInitial
p6164
VTOWER
p6165
sVChatRoomId
p6166
I0
sVIsOwner
p6167
I0
sVHideInputBarFlag
p6168
I0
sVEncryChatRoomId
p6169
g44
sVAttrStatus
p6170
I0
sVSnsFlag
p6171
I0
sVMemberCount
p6172
I0
sVOwnerUin
p6173
I0
sVAlias
p6174
g44
sVSignature
p6175
V\u6df1\u53d7\u7528\u6237\u559c\u7231\u7684\u56e2\u961f\u534f\u4f5c\u5de5\u5177 - Tower
p6176
sVContactFlag
p6177
I1
sVNickName
p6178
VTower
p6179
sVRemarkPYQuanPin
p6180
g44
sVHeadImgUrl
p6181
V/cgi-bin/mmwebwx-bin/webwxgeticon?seq=681284282&username=@48ee1e017c000bfa8a96ee26093c2924&skey=@crypt_c4463405_f828997f90577ab38fb847ff6f45f664
p6182
sVSex
p6183
I0
sVStarFriend
p6184
I0
sVStatues
p6185
I0
sa(dp6186
VUserName
p6187
V@216bd45960b8b8f34a3b34204e974e33
p6188
sVCity
p6189
V\u676d\u5dde
p6190
sVDisplayName
p6191
g44
sVUniFriend
p6192
I0
sVMemberList
p6193
(lp6194
sVPYQuanPin
p6195
Vwokendingbuchiyexiaoa
p6196
sVRemarkPYInitial
p6197
g44
sVUin
p6198
I0
sVAppAccountFlag
p6199
I0
sVVerifyFlag
p6200
I24
sVProvince
p6201
V\u6d59\u6c5f
p6202
sVKeyWord
p6203
Vgh_
p6204
sVRemarkName
p6205
g44
sVPYInitial
p6206
VWKDBCYXA
p6207
sVChatRoomId
p6208
I0
sVIsOwner
p6209
I0
sVHideInputBarFlag
p6210
I0
sVEncryChatRoomId
p6211
g44
sVAttrStatus
p6212
I0
sVSnsFlag
p6213
I0
sVMemberCount
p6214
I0
sVOwnerUin
p6215
I0
sVAlias
p6216
g44
sVSignature
p6217
V\u6211\u80af\u5b9a\u4e0d\u5403\u591c\u5bb5\u554a
p6218
sVContactFlag
p6219
I1
sVNickName
p6220
V\u6211\u80af\u5b9a\u4e0d\u5403\u591c\u5bb5\u554a
p6221
sVRemarkPYQuanPin
p6222
g44
sVHeadImgUrl
p6223
V/cgi-bin/mmwebwx-bin/webwxgeticon?seq=681307548&username=@216bd45960b8b8f34a3b34204e974e33&skey=@crypt_c4463405_f828997f90577ab38fb847ff6f45f664
p6224
sVSex
p6225
I0
sVStarFriend
p6226
I0
sVStatues
p6227
I0
sa(dp6228
VUserName
p6229
V@2987d2b4c3f5889e47c9cdbabcf0c4d9
p6230
sVCity
p6231
V\u73e0\u6d77
p6232
sVDisplayName
p6233
g44
sVUniFriend
p6234
I0
sVMemberList
p6235
(lp6236
sVPYQuanPin
p6237
VWPShuiyuan
p6238
sVRemarkPYInitial
p6239
g44
sVUin
p6240
I0
sVAppAccountFlag
p6241
I0
sVVerifyFlag
p6242
I24
sVProvince
p6243
V\u5e7f\u4e1c
p6244
sVKeyWord
p6245
Vgh_
p6246
sVRemarkName
p6247
g44
sVPYInitial
p6248
VWPSHY
p6249
sVChatRoomId
p6250
I0
sVIsOwner
p6251
I0
sVHideInputBarFlag
p6252
I0
sVEncryChatRoomId
p6253
g44
sVAttrStatus
p6254
I0
sVSnsFlag
p6255
I0
sVMemberCount
p6256
I0
sVOwnerUin
p6257
I0
sVAlias
p6258
g44
sVSignature
p6259
V\u5173\u6ce8WPS\u4f1a\u5458\u4e2d\u5fc3\uff0c\u4fbf\u6377\u7684\u4f1a\u5458\u670d\u52a1\uff0c\u8ba9\u60a8\u968f\u8eab\u5e26\u7740\u7279\u6743\u8d70\uff0c\u65f6\u65f6\u523b\u523b\u4eab\u53d7WPS\u4f1a\u5458\u7279\u6743\uff01
p6260
sVContactFlag
p6261
I1
sVNickName
p6262
VWPS\u4f1a\u5458
p6263
sVRemarkPYQuanPin
p6264
g44
sVHeadImgUrl
p6265
V/cgi-bin/mmwebwx-bin/webwxgeticon?seq=681225904&username=@2987d2b4c3f5889e47c9cdbabcf0c4d9&skey=@crypt_c4463405_f828997f90577ab38fb847ff6f45f664
p6266
sVSex
p6267
I0
sVStarFriend
p6268
I0
sVStatues
p6269
I0
sa(dp6270
VUserName
p6271
V@1f2def57b661d26738bbc8d0c7513ea5
p6272
sVCity
p6273
g44
sVDisplayName
p6274
g44
sVUniFriend
p6275
I0
sVMemberList
p6276
(lp6277
sVPYQuanPin
p6278
Vweixinzhifu
p6279
sVRemarkPYInitial
p6280
g44
sVUin
p6281
I0
sVAppAccountFlag
p6282
I0
sVVerifyFlag
p6283
I24
sVProvince
p6284
V\u5e7f\u4e1c
p6285
sVKeyWord
p6286
Vgh_
p6287
sVRemarkName
p6288
g44
sVPYInitial
p6289
VWXZF
p6290
sVChatRoomId
p6291
I0
sVIsOwner
p6292
I0
sVHideInputBarFlag
p6293
I0
sVEncryChatRoomId
p6294
g44
sVAttrStatus
p6295
I0
sVSnsFlag
p6296
I0
sVMemberCount
p6297
I0
sVOwnerUin
p6298
I0
sVAlias
p6299
g44
sVSignature
p6300
V\u5e2e\u52a9\u89e3\u51b3\u5fae\u4fe1\u652f\u4ed8\u4e2d\u9047\u5230\u7684\u56f0\u96be\uff0c\u6536\u96c6\u5173\u4e8e\u5fae\u4fe1\u652f\u4ed8\u7684\u5efa\u8bae\u53cd\u9988\u3002
p6301
sVContactFlag
p6302
I1
sVNickName
p6303
V\u5fae\u4fe1\u652f\u4ed8
p6304
sVRemarkPYQuanPin
p6305
g44
sVHeadImgUrl
p6306
V/cgi-bin/mmwebwx-bin/webwxgeticon?seq=622070079&username=@1f2def57b661d26738bbc8d0c7513ea5&skey=@crypt_c4463405_f828997f90577ab38fb847ff6f45f664
p6307
sVSex
p6308
I0
sVStarFriend
p6309
I0
sVStatues
p6310
I0
sa(dp6311
VUserName
p6312
V@c0fa93cfcb307d424fde62afedf61f51
p6313
sVCity
p6314
V\u5927\u5174
p6315
sVDisplayName
p6316
g44
sVUniFriend
p6317
I0
sVMemberList
p6318
(lp6319
sVPYQuanPin
p6320
Vjingdongbaitiao
p6321
sVRemarkPYInitial
p6322
g44
sVUin
p6323
I0
sVAppAccountFlag
p6324
I0
sVVerifyFlag
p6325
I24
sVProvince
p6326
V\u5317\u4eac
p6327
sVKeyWord
p6328
Vgh_
p6329
sVRemarkName
p6330
g44
sVPYInitial
p6331
VJDBT
p6332
sVChatRoomId
p6333
I0
sVIsOwner
p6334
I0
sVHideInputBarFlag
p6335
I0
sVEncryChatRoomId
p6336
g44
sVAttrStatus
p6337
I0
sVSnsFlag
p6338
I0
sVMemberCount
p6339
I0
sVOwnerUin
p6340
I0
sVAlias
p6341
g44
sVSignature
p6342
V\u5148\u6d88\u8d39\uff0c\u540e\u4ed8\u6b3e\u3002\u4fe1\u7528\u597d\uff0c\u6253\u767d\u6761\u3002\u8d85\u4f4e\u5206\u671f\u8d39\u7387\uff0c\u66f4\u6709\u4e13\u4eab\u4f18\u60e0\u3002
p6343
sVContactFlag
p6344
I1
sVNickName
p6345
V\u4eac\u4e1c\u767d\u6761
p6346
sVRemarkPYQuanPin
p6347
g44
sVHeadImgUrl
p6348
V/cgi-bin/mmwebwx-bin/webwxgeticon?seq=681304983&username=@c0fa93cfcb307d424fde62afedf61f51&skey=@crypt_c4463405_f828997f90577ab38fb847ff6f45f664
p6349
sVSex
p6350
I0
sVStarFriend
p6351
I0
sVStatues
p6352
I0
sassS'loginInfo'
p6353
(dp6354
S'SyncKey'
p6355
(dp6356
VCount
p6357
I10
sVList
p6358
(lp6359
(dp6360
VVal
p6361
I708768900
sVKey
p6362
I1
sa(dp6363
VVal
p6364
I708768919
sVKey
p6365
I2
sa(dp6366
VVal
p6367
I708768883
sVKey
p6368
I3
sa(dp6369
VVal
p6370
I708768895
sVKey
p6371
I11
sa(dp6372
VVal
p6373
I126
sVKey
p6374
I19
sa(dp6375
VVal
p6376
I1578722322
sVKey
p6377
I201
sa(dp6378
VVal
p6379
I1578721907
sVKey
p6380
I203
sa(dp6381
VVal
p6382
I1
sVKey
p6383
I206
sa(dp6384
VVal
p6385
I1578721202
sVKey
p6386
I1000
sa(dp6387
VVal
p6388
I1578721334
sVKey
p6389
I1001
sassS'syncUrl'
p6390
S'https://webpush.wx.qq.com/cgi-bin/mmwebwx-bin'
p6391
sS'skey'
p6392
V@crypt_c4463405_f828997f90577ab38fb847ff6f45f664
p6393
sS'wxuin'
p6394
V1424655402
p6395
sS'synckey'
p6396
S'1_708768900|2_708768919|3_708768883|11_708768895|19_126|201_1578722322|203_1578721907|206_1|1000_1578721202|1001_1578721334'
p6397
sS'url'
p6398
Vhttps://wx.qq.com/cgi-bin/mmwebwx-bin
p6399
sS'pass_ticket'
p6400
VAEUCOSTywmXLNyZJQPBUnKlTASMwmq69mg9JQJR3FTGsI3%2BjUp%2FWBm5NGDAWfuNJ
p6401
sS'wxsid'
p6402
VRkbTNFviKjSWb7EP
p6403
sS'InviteStartCount'
p6404
I40
sS'deviceid'
p6405
S'e306205881294286'
p6406
sS'fileUrl'
p6407
S'https://file.wx.qq.com/cgi-bin/mmwebwx-bin'
p6408
sS'BaseRequest'
p6409
(dp6410
g71
g6395
sS'Skey'
p6411
g6393
sS'DeviceID'
p6412
g6401
sS'Sid'
p6413
g6403
ssS'User'
p6414
g35
ss.